Certificate:
    Data:
        Version: 3 (0x2)
        Serial Number:
            18:47:b0:43:e5:f1:f4:92:16:cd:9e:8c:0b:16:8f:bf
    Signature Algorithm: sha256WithRSAEncryption
        Issuer: C=US, ST=CA, L=Mountain View, O=Aerospike, Inc., OU=Engineering Test, CN=Root CA
        Validity
            Not Before: Nov  5 20:06:01 2020 GMT
            Not After : Nov  4 20:06:01 2024 GMT
        Subject: C=US, ST=CA, O=Aerospike, Inc., OU=Chainless Test Server, CN=bob-cluster-b
        Subject Public Key Info:
            Public Key Algorithm: rsaEncryption
                Public-Key: (2048 bit)
                Modulus:
                    00:bf:db:63:29:4d:e9:d7:e8:c2:25:63:c8:4f:11:
                    ea:ca:21:17:e6:2d:29:4f:e9:f3:4f:0b:e7:71:68:
                    c3:15:75:04:ec:97:e0:2b:2e:dc:70:50:02:2d:a4:
                    f4:fc:77:90:b6:0c:c8:5e:24:ce:ce:38:2e:ec:cd:
                    93:e1:0b:31:d2:ce:69:76:0c:c0:0c:07:e3:5e:05:
                    24:d1:3b:49:97:85:a6:15:cb:9f:c7:e5:29:54:99:
                    a0:8c:3e:47:b4:62:21:17:c7:d0:b5:7f:43:56:a0:
                    fe:0b:b5:47:12:fe:f2:60:71:95:ee:b7:11:1f:b2:
                    9a:de:ac:bc:6b:11:95:18:13:a4:b1:db:32:42:f1:
                    ef:37:4f:ad:a4:86:80:fd:e3:22:8e:fc:00:2a:56:
                    26:b9:c2:db:6c:c6:fd:de:71:a7:3d:54:9c:e1:af:
                    f0:2a:99:99:33:97:e0:ef:26:10:c8:4f:40:ca:b6:
                    3d:99:3f:0c:e6:65:72:33:f4:c1:d6:b0:05:d1:c3:
                    8a:bf:75:51:29:5f:df:eb:5d:58:9d:d8:07:5d:51:
                    c0:3b:7d:15:9d:c5:fd:ab:48:3f:3c:90:a4:d9:25:
                    ab:49:7e:5d:15:8a:88:6b:d7:1d:59:6b:16:95:87:
                    d6:8b:70:70:92:e0:c0:43:44:0c:1f:74:7b:cd:ac:
                    ea:95
                Exponent: 65537 (0x10001)
        X509v3 extensions:
            X509v3 Basic Constraints: critical
                CA:TRUE, pathlen:0
            X509v3 Key Usage: critical
                Digital Signature, Key Encipherment, Certificate Sign, CRL Sign
            X509v3 Extended Key Usage: 
                TLS Web Server Authentication, TLS Web Client Authentication
            Authority Information Access: 
                OCSP - URI:http://ocsp.my.host/

            X509v3 CRL Distribution Points: 

                Full Name:
                  URI:http://myhost.com/myca.crl

            X509v3 Certificate Policies: 
                Policy: X509v3 Any Policy
                  CPS: https://myhost.com/CPS

            X509v3 Subject Key Identifier: 
                BE:0C:FB:7A:0F:EE:05:86:02:4D:0E:41:8E:A2:D6:23:53:2E:AB:65
            X509v3 Authority Key Identifier: 
                keyid:CB:DD:69:7B:6D:3D:C7:6F:36:C0:EB:AF:4C:26:4D:3E:E0:97:53:61

    Signature Algorithm: sha256WithRSAEncryption
         7d:9e:5d:20:65:e9:68:a6:d5:05:4b:6a:96:ea:9a:dc:dd:71:
         10:e7:cb:4d:7a:72:09:32:70:2c:60:0b:de:12:e3:74:43:1f:
         cb:0b:56:d4:11:6d:e6:83:cf:c8:f2:b1:48:91:d0:cf:ec:11:
         39:2f:dc:13:3f:c8:9d:b1:f1:37:e8:12:3c:6b:d6:62:c8:9b:
         48:af:c2:a8:47:e4:27:4f:6a:9e:1f:cf:8d:22:8b:1e:4b:05:
         5a:24:af:a6:36:a1:a0:81:a6:d6:39:bf:62:2d:76:48:f9:68:
         16:c9:c5:8c:cb:f5:bd:af:24:3f:a9:c8:93:86:ef:88:8d:ef:
         f8:79:92:83:ff:57:ce:32:0a:88:0b:9a:2f:27:0a:7c:dc:f3:
         0e:45:cb:a6:ef:8a:15:6a:6d:1b:cc:e9:fa:35:54:e1:4f:60:
         3b:3c:07:71:b8:4d:a3:75:e6:63:be:65:79:70:2d:91:6d:8d:
         e0:8a:be:0d:8c:5d:17:71:7d:37:21:32:c4:0c:8a:59:63:5f:
         7a:10:4e:ea:fc:03:5c:8f:70:ed:6f:8d:0a:b8:cb:50:fd:18:
         a2:10:f8:53:e2:01:88:15:d6:b6:38:7f:f9:c2:67:15:f1:c0:
         2d:2d:77:04:53:d4:41:7e:fa:1c:54:ae:e0:2c:2b:cb:32:50:
         e8:2d:06:66
-----BEGIN CERTIFICATE-----
MIIEkDCCA3igAwIBAgIQGEewQ+Xx9JIWzZ6MCxaPvzANBgkqhkiG9w0BAQsFADB5
MQswCQYDVQQGEwJVUzELMAkGA1UECAwCQ0ExFjAUBgNVBAcMDU1vdW50YWluIFZp
ZXcxGDAWBgNVBAoMD0Flcm9zcGlrZSwgSW5jLjEZMBcGA1UECwwQRW5naW5lZXJp
bmcgVGVzdDEQMA4GA1UEAwwHUm9vdCBDQTAeFw0yMDExMDUyMDA2MDFaFw0yNDEx
MDQyMDA2MDFaMGwxCzAJBgNVBAYTAlVTMQswCQYDVQQIDAJDQTEYMBYGA1UECgwP
QWVyb3NwaWtlLCBJbmMuMR4wHAYDVQQLDBVDaGFpbmxlc3MgVGVzdCBTZXJ2ZXIx
FjAUBgNVBAMMDWJvYi1jbHVzdGVyLWIwggEiMA0GCSqGSIb3DQEBAQUAA4IBDwAw
ggEKAoIBAQC/22MpTenX6MIlY8hPEerKIRfmLSlP6fNPC+dxaMMVdQTsl+ArLtxw
UAItpPT8d5C2DMheJM7OOC7szZPhCzHSzml2DMAMB+NeBSTRO0mXhaYVy5/H5SlU
maCMPke0YiEXx9C1f0NWoP4LtUcS/vJgcZXutxEfsprerLxrEZUYE6Sx2zJC8e83
T62khoD94yKO/AAqVia5wttsxv3ecac9VJzhr/AqmZkzl+DvJhDIT0DKtj2ZPwzm
ZXIz9MHWsAXRw4q/dVEpX9/rXVid2AddUcA7fRWdxf2rSD88kKTZJatJfl0Viohr
1x1ZaxaVh9aLcHCS4MBDRAwfdHvNrOqVAgMBAAGjggEfMIIBGzASBgNVHRMBAf8E
CDAGAQH/AgEAMA4GA1UdDwEB/wQEAwIBpjAdBgNVHSUEFjAUBggrBgEFBQcDAQYI
KwYBBQUHAwIwMAYIKwYBBQUHAQEEJDAiMCAGCCsGAQUFBzABhhRodHRwOi8vb2Nz
cC5teS5ob3N0LzArBgNVHR8EJDAiMCCgHqAchhpodHRwOi8vbXlob3N0LmNvbS9t
eWNhLmNybDA3BgNVHSAEMDAuMCwGBFUdIAAwJDAiBggrBgEFBQcCARYWaHR0cHM6
Ly9teWhvc3QuY29tL0NQUzAdBgNVHQ4EFgQUvgz7eg/uBYYCTQ5BjqLWI1Muq2Uw
HwYDVR0jBBgwFoAUy91pe209x282wOuvTCZNPuCXU2EwDQYJKoZIhvcNAQELBQAD
ggEBAH2eXSBl6Wim1QVLapbqmtzdcRDny016cgkycCxgC94S43RDH8sLVtQRbeaD
z8jysUiR0M/sETkv3BM/yJ2x8TfoEjxr1mLIm0ivwqhH5CdPap4fz40iix5LBVok
r6Y2oaCBptY5v2Itdkj5aBbJxYzL9b2vJD+pyJOG74iN7/h5koP/V84yCogLmi8n
Cnzc8w5Fy6bvihVqbRvM6fo1VOFPYDs8B3G4TaN15mO+ZXlwLZFtjeCKvg2MXRdx
fTchMsQMilljX3oQTur8A1yPcO1vjQq4y1D9GKIQ+FPiAYgV1rY4f/nCZxXxwC0t
dwRT1EF++hxUruAsK8syUOgtBmY=
-----END CERTIFICATE-----
