Certificate:
    Data:
        Version: 3 (0x2)
        Serial Number:
            74:1c:15:a7:eb:cf:32:43:a9:06:23:7b:91:27:17:b2
    Signature Algorithm: sha256WithRSAEncryption
        Issuer: C=US, ST=CA, L=Mountain View, O=Aerospike, Inc., OU=Engineering Test, CN=Root CA
        Validity
            Not Before: Nov  5 20:06:00 2020 GMT
            Not After : Nov  4 20:06:00 2024 GMT
        Subject: C=US, ST=CA, O=Aerospike, Inc., OU=Engineering Test, CN=Chain Signing Cert
        Subject Public Key Info:
            Public Key Algorithm: rsaEncryption
                Public-Key: (2048 bit)
                Modulus:
                    00:b4:f0:1a:07:98:ab:c8:43:ea:b6:f5:34:2d:a5:
                    2b:2e:8e:f1:e1:fc:f7:6e:8c:a7:50:b9:fb:55:da:
                    23:44:ff:2d:e0:68:de:a4:f8:74:47:ef:46:01:11:
                    50:22:7e:bd:d7:38:ba:31:e6:d5:72:78:1e:45:47:
                    49:1b:27:7a:10:1b:f9:34:75:01:44:55:37:be:c8:
                    e7:b4:9f:01:68:f3:e6:4f:35:a5:38:9e:87:8f:1f:
                    53:ea:0b:0b:1d:63:d9:45:1f:4d:be:36:90:ac:b4:
                    af:c7:4d:39:ab:5b:42:e5:81:d7:c8:95:e3:76:7a:
                    fd:86:c4:26:13:2b:27:27:1d:e9:ee:cd:6c:cc:41:
                    47:b1:a5:4e:fb:4d:30:bb:ba:68:1a:3c:e8:71:94:
                    f1:ae:3f:8c:5e:be:72:72:97:3e:e5:f0:1b:d0:f7:
                    5c:14:14:54:3d:2d:3c:0d:75:7f:3d:54:b0:a8:f0:
                    3e:68:c5:b8:5d:35:71:c0:b5:66:88:6a:9e:af:14:
                    34:1f:2f:4d:c6:f2:73:3a:d8:47:9e:b6:d7:b1:54:
                    74:b9:21:1f:62:18:10:ad:09:19:51:65:5b:4f:b2:
                    1a:54:5c:86:c4:42:45:97:d5:2f:2e:54:71:cc:52:
                    76:af:dd:e2:21:a0:ee:9a:4d:2b:79:47:8a:47:30:
                    7f:c7
                Exponent: 65537 (0x10001)
        X509v3 extensions:
            X509v3 Basic Constraints: critical
                CA:TRUE, pathlen:0
            X509v3 Key Usage: critical
                Digital Signature, Key Encipherment, Certificate Sign, CRL Sign
            X509v3 Extended Key Usage: 
                TLS Web Server Authentication, TLS Web Client Authentication
            Authority Information Access: 
                OCSP - URI:http://ocsp.my.host/

            X509v3 CRL Distribution Points: 

                Full Name:
                  URI:http://myhost.com/myca.crl

            X509v3 Certificate Policies: 
                Policy: X509v3 Any Policy
                  CPS: https://myhost.com/CPS

            X509v3 Subject Key Identifier: 
                BC:72:1F:3D:E6:B5:5C:BD:B9:2E:98:5E:FD:53:F7:F1:EA:17:70:96
            X509v3 Authority Key Identifier: 
                keyid:CB:DD:69:7B:6D:3D:C7:6F:36:C0:EB:AF:4C:26:4D:3E:E0:97:53:61

    Signature Algorithm: sha256WithRSAEncryption
         01:c9:f8:3e:bd:55:a0:3b:39:81:5e:c3:81:59:c0:40:31:6e:
         a9:db:47:0e:76:84:63:21:84:67:f8:b2:fc:77:2d:0f:9b:b7:
         a5:9d:e4:3e:c9:8b:a3:30:a8:34:81:d4:48:0a:b4:a7:19:42:
         a9:5a:35:94:32:c3:a7:7a:d7:50:6c:6d:c8:d2:7f:3e:0c:54:
         1e:c0:06:7c:2c:c6:82:f4:1e:5b:9f:42:de:4b:cb:38:59:4c:
         17:0a:a0:d0:db:5d:2c:58:a9:63:cc:c0:6c:17:a8:a4:8b:f7:
         6c:3f:11:ca:2b:2d:db:5b:03:ad:fd:23:5c:ae:30:26:96:b6:
         8f:04:b9:51:89:29:22:4e:91:82:ef:20:26:8c:ff:02:54:64:
         31:01:ce:81:01:8c:ab:34:05:b3:4a:38:97:56:29:74:a1:ea:
         57:25:d4:9c:f5:27:97:bc:80:9a:c5:df:f9:c0:53:4d:34:75:
         df:e5:23:7f:16:11:70:83:99:9b:b4:3e:d7:13:f1:78:b7:37:
         bd:2e:66:a4:53:d9:c7:7c:93:a9:c9:fc:49:0a:e2:4f:3f:9d:
         50:d9:21:33:52:e6:e5:60:a5:ca:3f:d9:75:0e:55:0a:3e:0f:
         7a:4a:e6:e4:8a:fe:a9:0d:f2:0d:a1:bf:ad:a6:b8:4d:6c:34:
         36:fc:2c:b6
-----BEGIN CERTIFICATE-----
MIIEkDCCA3igAwIBAgIQdBwVp+vPMkOpBiN7kScXsjANBgkqhkiG9w0BAQsFADB5
MQswCQYDVQQGEwJVUzELMAkGA1UECAwCQ0ExFjAUBgNVBAcMDU1vdW50YWluIFZp
ZXcxGDAWBgNVBAoMD0Flcm9zcGlrZSwgSW5jLjEZMBcGA1UECwwQRW5naW5lZXJp
bmcgVGVzdDEQMA4GA1UEAwwHUm9vdCBDQTAeFw0yMDExMDUyMDA2MDBaFw0yNDEx
MDQyMDA2MDBaMGwxCzAJBgNVBAYTAlVTMQswCQYDVQQIDAJDQTEYMBYGA1UECgwP
QWVyb3NwaWtlLCBJbmMuMRkwFwYDVQQLDBBFbmdpbmVlcmluZyBUZXN0MRswGQYD
VQQDDBJDaGFpbiBTaWduaW5nIENlcnQwggEiMA0GCSqGSIb3DQEBAQUAA4IBDwAw
ggEKAoIBAQC08BoHmKvIQ+q29TQtpSsujvHh/PdujKdQuftV2iNE/y3gaN6k+HRH
70YBEVAifr3XOLox5tVyeB5FR0kbJ3oQG/k0dQFEVTe+yOe0nwFo8+ZPNaU4noeP
H1PqCwsdY9lFH02+NpCstK/HTTmrW0LlgdfIleN2ev2GxCYTKycnHenuzWzMQUex
pU77TTC7umgaPOhxlPGuP4xevnJylz7l8BvQ91wUFFQ9LTwNdX89VLCo8D5oxbhd
NXHAtWaIap6vFDQfL03G8nM62EeettexVHS5IR9iGBCtCRlRZVtPshpUXIbEQkWX
1S8uVHHMUnav3eIhoO6aTSt5R4pHMH/HAgMBAAGjggEfMIIBGzASBgNVHRMBAf8E
CDAGAQH/AgEAMA4GA1UdDwEB/wQEAwIBpjAdBgNVHSUEFjAUBggrBgEFBQcDAQYI
KwYBBQUHAwIwMAYIKwYBBQUHAQEEJDAiMCAGCCsGAQUFBzABhhRodHRwOi8vb2Nz
cC5teS5ob3N0LzArBgNVHR8EJDAiMCCgHqAchhpodHRwOi8vbXlob3N0LmNvbS9t
eWNhLmNybDA3BgNVHSAEMDAuMCwGBFUdIAAwJDAiBggrBgEFBQcCARYWaHR0cHM6
Ly9teWhvc3QuY29tL0NQUzAdBgNVHQ4EFgQUvHIfPea1XL25Lphe/VP38eoXcJYw
HwYDVR0jBBgwFoAUy91pe209x282wOuvTCZNPuCXU2EwDQYJKoZIhvcNAQELBQAD
ggEBAAHJ+D69VaA7OYFew4FZwEAxbqnbRw52hGMhhGf4svx3LQ+bt6Wd5D7Ji6Mw
qDSB1EgKtKcZQqlaNZQyw6d611BsbcjSfz4MVB7ABnwsxoL0HlufQt5LyzhZTBcK
oNDbXSxYqWPMwGwXqKSL92w/EcorLdtbA639I1yuMCaWto8EuVGJKSJOkYLvICaM
/wJUZDEBzoEBjKs0BbNKOJdWKXSh6lcl1Jz1J5e8gJrF3/nAU000dd/lI38WEXCD
mZu0PtcT8Xi3N70uZqRT2cd8k6nJ/EkK4k8/nVDZITNS5uVgpco/2XUOVQo+D3pK
5uSK/qkN8g2hv62muE1sNDb8LLY=
-----END CERTIFICATE-----
