Certificate:
    Data:
        Version: 3 (0x2)
        Serial Number:
            8f:dd:7f:5e:46:e7:ff:f2:f8:b0:4b:da:ac:21:55:a5
    Signature Algorithm: sha256WithRSAEncryption
        Issuer: C=US, ST=CA, O=Aerospike, Inc., OU=Engineering Test, CN=Chain Signing Cert
        Validity
            Not Before: Nov  5 20:06:02 2020 GMT
            Not After : Nov  4 20:06:02 2024 GMT
        Subject: C=US, ST=CA, O=Aerospike, Inc., OU=Cluster Name Test, CN=bob-cluster-d
        Subject Public Key Info:
            Public Key Algorithm: rsaEncryption
                Public-Key: (2048 bit)
                Modulus:
                    00:cd:8d:5d:a4:6f:bf:28:83:67:08:a7:81:49:2e:
                    92:38:db:01:e3:09:ae:3f:65:18:fb:ba:26:ca:25:
                    9c:4d:d5:e2:f5:d4:0b:f3:b4:29:c4:2f:3b:77:96:
                    52:92:8d:c4:c6:3a:c6:14:f7:ba:db:1f:53:1e:fe:
                    ba:87:58:dd:a5:d4:05:4a:20:63:8a:23:03:1e:39:
                    fe:e8:e2:bf:e9:ae:6b:47:fb:0d:b5:8e:4b:13:f7:
                    58:8c:12:fe:73:1f:44:75:ce:3a:d7:31:f3:7a:c9:
                    70:56:e2:60:6a:30:2a:c1:31:62:2e:a8:df:fd:1d:
                    f3:90:82:2c:47:48:b9:5e:0d:4f:3e:75:83:e9:7f:
                    0c:21:62:89:67:f0:51:25:4f:ed:af:83:0a:9c:12:
                    63:a1:a5:cc:49:65:df:84:1d:5b:de:f8:30:2f:2b:
                    48:67:d9:a0:44:cb:9c:e4:d6:86:e8:47:24:7d:4e:
                    dc:34:23:ca:1c:d9:e4:34:50:28:a1:c2:06:a4:14:
                    f1:32:1f:bc:42:c1:69:da:ae:a3:bc:c4:0b:36:8f:
                    16:72:cd:3e:9a:0e:a1:24:73:7c:0f:f0:8e:95:52:
                    a8:49:6c:90:38:02:08:c4:18:f5:c4:89:c6:65:f7:
                    fe:fb:d2:82:90:41:bf:54:3b:b2:00:e1:8f:d3:b9:
                    9c:27
                Exponent: 65537 (0x10001)
        X509v3 extensions:
            X509v3 Authority Key Identifier: 
                keyid:BC:72:1F:3D:E6:B5:5C:BD:B9:2E:98:5E:FD:53:F7:F1:EA:17:70:96

            X509v3 Subject Key Identifier: 
                58:90:1C:78:DE:89:21:E5:E0:83:33:76:56:73:6F:29:33:A9:28:82
            X509v3 Key Usage: critical
                Digital Signature, Key Encipherment
            X509v3 Extended Key Usage: 
                TLS Web Server Authentication, TLS Web Client Authentication
            X509v3 CRL Distribution Points: 

                Full Name:
                  URI:http://myhost.com/myca1.crl

                Full Name:
                  URI:http://myhost.com/myca2.crl

            X509v3 Certificate Policies: 
                Policy: 2.16.840.1.114412.1.1
                  CPS: https://myhost.com/CPS
                Policy: 2.23.140.1.2.2

            Authority Information Access: 
                OCSP - URI:http://ocsp.my.host/
                CA Issuers - URI:http://my.ca/ca.html

            X509v3 Basic Constraints: critical
                CA:FALSE
    Signature Algorithm: sha256WithRSAEncryption
         9f:f5:6d:c5:bd:6e:b4:9b:dd:51:3b:59:2a:6a:b9:a1:68:75:
         d3:6d:35:aa:a9:4a:65:8b:83:a4:99:c5:f3:8d:36:4d:c8:d5:
         d1:f1:70:6b:d3:8c:67:09:b5:0a:77:fc:19:04:63:3c:f2:34:
         c3:87:a9:30:28:e3:1b:0f:d6:d3:ac:88:63:a8:28:2c:22:c1:
         ff:ba:0e:91:6d:8d:2f:b9:e3:ab:bc:c5:5e:8d:ba:8f:00:03:
         d0:1d:ab:e4:a3:9f:f3:2b:cf:8c:5a:83:83:d2:2b:c3:97:e7:
         a3:49:25:0b:c2:0d:4e:96:7f:0f:93:06:37:b8:8a:76:23:70:
         13:f6:47:b7:09:4c:45:48:bd:f4:d6:52:12:92:f1:2e:58:0f:
         55:e1:28:80:18:23:de:fd:05:cb:03:4b:1d:19:38:9e:3b:ee:
         9b:e2:1a:d1:40:40:fc:48:35:ef:40:dc:6b:61:7d:0b:5a:26:
         71:3c:72:6d:9a:2d:48:54:85:fc:d0:90:a2:f2:d3:81:42:6e:
         c4:8f:9b:b3:a6:33:71:02:c3:e7:e6:9a:a8:f9:84:c9:df:55:
         5d:c9:43:2a:5c:e2:5f:cd:00:56:be:4c:5c:70:54:ed:c9:f6:
         96:08:53:c5:4a:13:33:65:30:ac:76:29:d0:8d:c2:2b:7b:ce:
         1a:24:6d:9c
-----BEGIN CERTIFICATE-----
MIIEzzCCA7egAwIBAgIRAI/df15G5//y+LBL2qwhVaUwDQYJKoZIhvcNAQELBQAw
bDELMAkGA1UEBhMCVVMxCzAJBgNVBAgMAkNBMRgwFgYDVQQKDA9BZXJvc3Bpa2Us
IEluYy4xGTAXBgNVBAsMEEVuZ2luZWVyaW5nIFRlc3QxGzAZBgNVBAMMEkNoYWlu
IFNpZ25pbmcgQ2VydDAeFw0yMDExMDUyMDA2MDJaFw0yNDExMDQyMDA2MDJaMGgx
CzAJBgNVBAYTAlVTMQswCQYDVQQIDAJDQTEYMBYGA1UECgwPQWVyb3NwaWtlLCBJ
bmMuMRowGAYDVQQLDBFDbHVzdGVyIE5hbWUgVGVzdDEWMBQGA1UEAwwNYm9iLWNs
dXN0ZXItZDCCASIwDQYJKoZIhvcNAQEBBQADggEPADCCAQoCggEBAM2NXaRvvyiD
ZwingUkukjjbAeMJrj9lGPu6JsolnE3V4vXUC/O0KcQvO3eWUpKNxMY6xhT3utsf
Ux7+uodY3aXUBUogY4ojAx45/ujiv+mua0f7DbWOSxP3WIwS/nMfRHXOOtcx83rJ
cFbiYGowKsExYi6o3/0d85CCLEdIuV4NTz51g+l/DCFiiWfwUSVP7a+DCpwSY6Gl
zEll34QdW974MC8rSGfZoETLnOTWhuhHJH1O3DQjyhzZ5DRQKKHCBqQU8TIfvELB
adquo7zECzaPFnLNPpoOoSRzfA/wjpVSqElskDgCCMQY9cSJxmX3/vvSgpBBv1Q7
sgDhj9O5nCcCAwEAAaOCAW4wggFqMB8GA1UdIwQYMBaAFLxyHz3mtVy9uS6YXv1T
9/HqF3CWMB0GA1UdDgQWBBRYkBx43okh5eCDM3ZWc28pM6kogjAOBgNVHQ8BAf8E
BAMCBaAwHQYDVR0lBBYwFAYIKwYBBQUHAwEGCCsGAQUFBwMCME8GA1UdHwRIMEYw
IaAfoB2GG2h0dHA6Ly9teWhvc3QuY29tL215Y2ExLmNybDAhoB+gHYYbaHR0cDov
L215aG9zdC5jb20vbXljYTIuY3JsMEYGA1UdIAQ/MD0wMQYJYIZIAYb9bAEBMCQw
IgYIKwYBBQUHAgEWFmh0dHBzOi8vbXlob3N0LmNvbS9DUFMwCAYGZ4EMAQICMFIG
CCsGAQUFBwEBBEYwRDAgBggrBgEFBQcwAYYUaHR0cDovL29jc3AubXkuaG9zdC8w
IAYIKwYBBQUHMAKGFGh0dHA6Ly9teS5jYS9jYS5odG1sMAwGA1UdEwEB/wQCMAAw
DQYJKoZIhvcNAQELBQADggEBAJ/1bcW9brSb3VE7WSpquaFoddNtNaqpSmWLg6SZ
xfONNk3I1dHxcGvTjGcJtQp3/BkEYzzyNMOHqTAo4xsP1tOsiGOoKCwiwf+6DpFt
jS+546u8xV6Nuo8AA9Adq+Sjn/Mrz4xag4PSK8OX56NJJQvCDU6Wfw+TBje4inYj
cBP2R7cJTEVIvfTWUhKS8S5YD1XhKIAYI979BcsDSx0ZOJ477pviGtFAQPxINe9A
3GthfQtaJnE8cm2aLUhUhfzQkKLy04FCbsSPm7OmM3ECw+fmmqj5hMnfVV3JQypc
4l/NAFa+TFxwVO3J9pYIU8VKEzNlMKx2KdCNwit7zhokbZw=
-----END CERTIFICATE-----
