Certificate:
    Data:
        Version: 3 (0x2)
        Serial Number:
            8f:dd:7f:5e:46:e7:ff:f2:f8:b0:4b:da:ac:21:55:a5
    Signature Algorithm: sha256WithRSAEncryption
        Issuer: C=US, ST=CA, O=Aerospike, Inc., OU=Engineering Test, CN=Chain Signing Cert
        Validity
            Not Before: Nov  5 20:06:02 2020 GMT
            Not After : Nov  4 20:06:02 2024 GMT
        Subject: C=US, ST=CA, O=Aerospike, Inc., OU=Cluster Name Test, CN=bob-cluster-d
        Subject Public Key Info:
            Public Key Algorithm: rsaEncryption
                Public-Key: (2048 bit)
                Modulus:
                    00:cd:8d:5d:a4:6f:bf:28:83:67:08:a7:81:49:2e:
                    92:38:db:01:e3:09:ae:3f:65:18:fb:ba:26:ca:25:
                    9c:4d:d5:e2:f5:d4:0b:f3:b4:29:c4:2f:3b:77:96:
                    52:92:8d:c4:c6:3a:c6:14:f7:ba:db:1f:53:1e:fe:
                    ba:87:58:dd:a5:d4:05:4a:20:63:8a:23:03:1e:39:
                    fe:e8:e2:bf:e9:ae:6b:47:fb:0d:b5:8e:4b:13:f7:
                    58:8c:12:fe:73:1f:44:75:ce:3a:d7:31:f3:7a:c9:
                    70:56:e2:60:6a:30:2a:c1:31:62:2e:a8:df:fd:1d:
                    f3:90:82:2c:47:48:b9:5e:0d:4f:3e:75:83:e9:7f:
                    0c:21:62:89:67:f0:51:25:4f:ed:af:83:0a:9c:12:
                    63:a1:a5:cc:49:65:df:84:1d:5b:de:f8:30:2f:2b:
                    48:67:d9:a0:44:cb:9c:e4:d6:86:e8:47:24:7d:4e:
                    dc:34:23:ca:1c:d9:e4:34:50:28:a1:c2:06:a4:14:
                    f1:32:1f:bc:42:c1:69:da:ae:a3:bc:c4:0b:36:8f:
                    16:72:cd:3e:9a:0e:a1:24:73:7c:0f:f0:8e:95:52:
                    a8:49:6c:90:38:02:08:c4:18:f5:c4:89:c6:65:f7:
                    fe:fb:d2:82:90:41:bf:54:3b:b2:00:e1:8f:d3:b9:
                    9c:27
                Exponent: 65537 (0x10001)
        X509v3 extensions:
            X509v3 Authority Key Identifier: 
                keyid:BC:72:1F:3D:E6:B5:5C:BD:B9:2E:98:5E:FD:53:F7:F1:EA:17:70:96

            X509v3 Subject Key Identifier: 
                58:90:1C:78:DE:89:21:E5:E0:83:33:76:56:73:6F:29:33:A9:28:82
            X509v3 Key Usage: critical
                Digital Signature, Key Encipherment
            X509v3 Extended Key Usage: 
                TLS Web Server Authentication, TLS Web Client Authentication
            X509v3 CRL Distribution Points: 

                Full Name:
                  URI:http://myhost.com/myca1.crl

                Full Name:
                  URI:http://myhost.com/myca2.crl

            X509v3 Certificate Policies: 
                Policy: 2.16.840.1.114412.1.1
                  CPS: https://myhost.com/CPS
                Policy: 2.23.140.1.2.2

            Authority Information Access: 
                OCSP - URI:http://ocsp.my.host/
                CA Issuers - URI:http://my.ca/ca.html

            X509v3 Basic Constraints: critical
                CA:FALSE
    Signature Algorithm: sha256WithRSAEncryption
         9f:f5:6d:c5:bd:6e:b4:9b:dd:51:3b:59:2a:6a:b9:a1:68:75:
         d3:6d:35:aa:a9:4a:65:8b:83:a4:99:c5:f3:8d:36:4d:c8:d5:
         d1:f1:70:6b:d3:8c:67:09:b5:0a:77:fc:19:04:63:3c:f2:34:
         c3:87:a9:30:28:e3:1b:0f:d6:d3:ac:88:63:a8:28:2c:22:c1:
         ff:ba:0e:91:6d:8d:2f:b9:e3:ab:bc:c5:5e:8d:ba:8f:00:03:
         d0:1d:ab:e4:a3:9f:f3:2b:cf:8c:5a:83:83:d2:2b:c3:97:e7:
         a3:49:25:0b:c2:0d:4e:96:7f:0f:93:06:37:b8:8a:76:23:70:
         13:f6:47:b7:09:4c:45:48:bd:f4:d6:52:12:92:f1:2e:58:0f:
         55:e1:28:80:18:23:de:fd:05:cb:03:4b:1d:19:38:9e:3b:ee:
         9b:e2:1a:d1:40:40:fc:48:35:ef:40:dc:6b:61:7d:0b:5a:26:
         71:3c:72:6d:9a:2d:48:54:85:fc:d0:90:a2:f2:d3:81:42:6e:
         c4:8f:9b:b3:a6:33:71:02:c3:e7:e6:9a:a8:f9:84:c9:df:55:
         5d:c9:43:2a:5c:e2:5f:cd:00:56:be:4c:5c:70:54:ed:c9:f6:
         96:08:53:c5:4a:13:33:65:30:ac:76:29:d0:8d:c2:2b:7b:ce:
         1a:24:6d:9c
-----BEGIN CERTIFICATE-----
MIIEzzCCA7egAwIBAgIRAI/df15G5//y+LBL2qwhVaUwDQYJKoZIhvcNAQELBQAw
bDELMAkGA1UEBhMCVVMxCzAJBgNVBAgMAkNBMRgwFgYDVQQKDA9BZXJvc3Bpa2Us
IEluYy4xGTAXBgNVBAsMEEVuZ2luZWVyaW5nIFRlc3QxGzAZBgNVBAMMEkNoYWlu
IFNpZ25pbmcgQ2VydDAeFw0yMDExMDUyMDA2MDJaFw0yNDExMDQyMDA2MDJaMGgx
CzAJBgNVBAYTAlVTMQswCQYDVQQIDAJDQTEYMBYGA1UECgwPQWVyb3NwaWtlLCBJ
bmMuMRowGAYDVQQLDBFDbHVzdGVyIE5hbWUgVGVzdDEWMBQGA1UEAwwNYm9iLWNs
dXN0ZXItZDCCASIwDQYJKoZIhvcNAQEBBQADggEPADCCAQoCggEBAM2NXaRvvyiD
ZwingUkukjjbAeMJrj9lGPu6JsolnE3V4vXUC/O0KcQvO3eWUpKNxMY6xhT3utsf
Ux7+uodY3aXUBUogY4ojAx45/ujiv+mua0f7DbWOSxP3WIwS/nMfRHXOOtcx83rJ
cFbiYGowKsExYi6o3/0d85CCLEdIuV4NTz51g+l/DCFiiWfwUSVP7a+DCpwSY6Gl
zEll34QdW974MC8rSGfZoETLnOTWhuhHJH1O3DQjyhzZ5DRQKKHCBqQU8TIfvELB
adquo7zECzaPFnLNPpoOoSRzfA/wjpVSqElskDgCCMQY9cSJxmX3/vvSgpBBv1Q7
sgDhj9O5nCcCAwEAAaOCAW4wggFqMB8GA1UdIwQYMBaAFLxyHz3mtVy9uS6YXv1T
9/HqF3CWMB0GA1UdDgQWBBRYkBx43okh5eCDM3ZWc28pM6kogjAOBgNVHQ8BAf8E
BAMCBaAwHQYDVR0lBBYwFAYIKwYBBQUHAwEGCCsGAQUFBwMCME8GA1UdHwRIMEYw
IaAfoB2GG2h0dHA6Ly9teWhvc3QuY29tL215Y2ExLmNybDAhoB+gHYYbaHR0cDov
L215aG9zdC5jb20vbXljYTIuY3JsMEYGA1UdIAQ/MD0wMQYJYIZIAYb9bAEBMCQw
IgYIKwYBBQUHAgEWFmh0dHBzOi8vbXlob3N0LmNvbS9DUFMwCAYGZ4EMAQICMFIG
CCsGAQUFBwEBBEYwRDAgBggrBgEFBQcwAYYUaHR0cDovL29jc3AubXkuaG9zdC8w
IAYIKwYBBQUHMAKGFGh0dHA6Ly9teS5jYS9jYS5odG1sMAwGA1UdEwEB/wQCMAAw
DQYJKoZIhvcNAQELBQADggEBAJ/1bcW9brSb3VE7WSpquaFoddNtNaqpSmWLg6SZ
xfONNk3I1dHxcGvTjGcJtQp3/BkEYzzyNMOHqTAo4xsP1tOsiGOoKCwiwf+6DpFt
jS+546u8xV6Nuo8AA9Adq+Sjn/Mrz4xag4PSK8OX56NJJQvCDU6Wfw+TBje4inYj
cBP2R7cJTEVIvfTWUhKS8S5YD1XhKIAYI979BcsDSx0ZOJ477pviGtFAQPxINe9A
3GthfQtaJnE8cm2aLUhUhfzQkKLy04FCbsSPm7OmM3ECw+fmmqj5hMnfVV3JQypc
4l/NAFa+TFxwVO3J9pYIU8VKEzNlMKx2KdCNwit7zhokbZw=
-----END CERTIFICATE-----
Certificate:
    Data:
        Version: 3 (0x2)
        Serial Number:
            74:1c:15:a7:eb:cf:32:43:a9:06:23:7b:91:27:17:b2
    Signature Algorithm: sha256WithRSAEncryption
        Issuer: C=US, ST=CA, L=Mountain View, O=Aerospike, Inc., OU=Engineering Test, CN=Root CA
        Validity
            Not Before: Nov  5 20:06:00 2020 GMT
            Not After : Nov  4 20:06:00 2024 GMT
        Subject: C=US, ST=CA, O=Aerospike, Inc., OU=Engineering Test, CN=Chain Signing Cert
        Subject Public Key Info:
            Public Key Algorithm: rsaEncryption
                Public-Key: (2048 bit)
                Modulus:
                    00:b4:f0:1a:07:98:ab:c8:43:ea:b6:f5:34:2d:a5:
                    2b:2e:8e:f1:e1:fc:f7:6e:8c:a7:50:b9:fb:55:da:
                    23:44:ff:2d:e0:68:de:a4:f8:74:47:ef:46:01:11:
                    50:22:7e:bd:d7:38:ba:31:e6:d5:72:78:1e:45:47:
                    49:1b:27:7a:10:1b:f9:34:75:01:44:55:37:be:c8:
                    e7:b4:9f:01:68:f3:e6:4f:35:a5:38:9e:87:8f:1f:
                    53:ea:0b:0b:1d:63:d9:45:1f:4d:be:36:90:ac:b4:
                    af:c7:4d:39:ab:5b:42:e5:81:d7:c8:95:e3:76:7a:
                    fd:86:c4:26:13:2b:27:27:1d:e9:ee:cd:6c:cc:41:
                    47:b1:a5:4e:fb:4d:30:bb:ba:68:1a:3c:e8:71:94:
                    f1:ae:3f:8c:5e:be:72:72:97:3e:e5:f0:1b:d0:f7:
                    5c:14:14:54:3d:2d:3c:0d:75:7f:3d:54:b0:a8:f0:
                    3e:68:c5:b8:5d:35:71:c0:b5:66:88:6a:9e:af:14:
                    34:1f:2f:4d:c6:f2:73:3a:d8:47:9e:b6:d7:b1:54:
                    74:b9:21:1f:62:18:10:ad:09:19:51:65:5b:4f:b2:
                    1a:54:5c:86:c4:42:45:97:d5:2f:2e:54:71:cc:52:
                    76:af:dd:e2:21:a0:ee:9a:4d:2b:79:47:8a:47:30:
                    7f:c7
                Exponent: 65537 (0x10001)
        X509v3 extensions:
            X509v3 Basic Constraints: critical
                CA:TRUE, pathlen:0
            X509v3 Key Usage: critical
                Digital Signature, Key Encipherment, Certificate Sign, CRL Sign
            X509v3 Extended Key Usage: 
                TLS Web Server Authentication, TLS Web Client Authentication
            Authority Information Access: 
                OCSP - URI:http://ocsp.my.host/

            X509v3 CRL Distribution Points: 

                Full Name:
                  URI:http://myhost.com/myca.crl

            X509v3 Certificate Policies: 
                Policy: X509v3 Any Policy
                  CPS: https://myhost.com/CPS

            X509v3 Subject Key Identifier: 
                BC:72:1F:3D:E6:B5:5C:BD:B9:2E:98:5E:FD:53:F7:F1:EA:17:70:96
            X509v3 Authority Key Identifier: 
                keyid:CB:DD:69:7B:6D:3D:C7:6F:36:C0:EB:AF:4C:26:4D:3E:E0:97:53:61

    Signature Algorithm: sha256WithRSAEncryption
         01:c9:f8:3e:bd:55:a0:3b:39:81:5e:c3:81:59:c0:40:31:6e:
         a9:db:47:0e:76:84:63:21:84:67:f8:b2:fc:77:2d:0f:9b:b7:
         a5:9d:e4:3e:c9:8b:a3:30:a8:34:81:d4:48:0a:b4:a7:19:42:
         a9:5a:35:94:32:c3:a7:7a:d7:50:6c:6d:c8:d2:7f:3e:0c:54:
         1e:c0:06:7c:2c:c6:82:f4:1e:5b:9f:42:de:4b:cb:38:59:4c:
         17:0a:a0:d0:db:5d:2c:58:a9:63:cc:c0:6c:17:a8:a4:8b:f7:
         6c:3f:11:ca:2b:2d:db:5b:03:ad:fd:23:5c:ae:30:26:96:b6:
         8f:04:b9:51:89:29:22:4e:91:82:ef:20:26:8c:ff:02:54:64:
         31:01:ce:81:01:8c:ab:34:05:b3:4a:38:97:56:29:74:a1:ea:
         57:25:d4:9c:f5:27:97:bc:80:9a:c5:df:f9:c0:53:4d:34:75:
         df:e5:23:7f:16:11:70:83:99:9b:b4:3e:d7:13:f1:78:b7:37:
         bd:2e:66:a4:53:d9:c7:7c:93:a9:c9:fc:49:0a:e2:4f:3f:9d:
         50:d9:21:33:52:e6:e5:60:a5:ca:3f:d9:75:0e:55:0a:3e:0f:
         7a:4a:e6:e4:8a:fe:a9:0d:f2:0d:a1:bf:ad:a6:b8:4d:6c:34:
         36:fc:2c:b6
-----BEGIN CERTIFICATE-----
MIIEkDCCA3igAwIBAgIQdBwVp+vPMkOpBiN7kScXsjANBgkqhkiG9w0BAQsFADB5
MQswCQYDVQQGEwJVUzELMAkGA1UECAwCQ0ExFjAUBgNVBAcMDU1vdW50YWluIFZp
ZXcxGDAWBgNVBAoMD0Flcm9zcGlrZSwgSW5jLjEZMBcGA1UECwwQRW5naW5lZXJp
bmcgVGVzdDEQMA4GA1UEAwwHUm9vdCBDQTAeFw0yMDExMDUyMDA2MDBaFw0yNDEx
MDQyMDA2MDBaMGwxCzAJBgNVBAYTAlVTMQswCQYDVQQIDAJDQTEYMBYGA1UECgwP
QWVyb3NwaWtlLCBJbmMuMRkwFwYDVQQLDBBFbmdpbmVlcmluZyBUZXN0MRswGQYD
VQQDDBJDaGFpbiBTaWduaW5nIENlcnQwggEiMA0GCSqGSIb3DQEBAQUAA4IBDwAw
ggEKAoIBAQC08BoHmKvIQ+q29TQtpSsujvHh/PdujKdQuftV2iNE/y3gaN6k+HRH
70YBEVAifr3XOLox5tVyeB5FR0kbJ3oQG/k0dQFEVTe+yOe0nwFo8+ZPNaU4noeP
H1PqCwsdY9lFH02+NpCstK/HTTmrW0LlgdfIleN2ev2GxCYTKycnHenuzWzMQUex
pU77TTC7umgaPOhxlPGuP4xevnJylz7l8BvQ91wUFFQ9LTwNdX89VLCo8D5oxbhd
NXHAtWaIap6vFDQfL03G8nM62EeettexVHS5IR9iGBCtCRlRZVtPshpUXIbEQkWX
1S8uVHHMUnav3eIhoO6aTSt5R4pHMH/HAgMBAAGjggEfMIIBGzASBgNVHRMBAf8E
CDAGAQH/AgEAMA4GA1UdDwEB/wQEAwIBpjAdBgNVHSUEFjAUBggrBgEFBQcDAQYI
KwYBBQUHAwIwMAYIKwYBBQUHAQEEJDAiMCAGCCsGAQUFBzABhhRodHRwOi8vb2Nz
cC5teS5ob3N0LzArBgNVHR8EJDAiMCCgHqAchhpodHRwOi8vbXlob3N0LmNvbS9t
eWNhLmNybDA3BgNVHSAEMDAuMCwGBFUdIAAwJDAiBggrBgEFBQcCARYWaHR0cHM6
Ly9teWhvc3QuY29tL0NQUzAdBgNVHQ4EFgQUvHIfPea1XL25Lphe/VP38eoXcJYw
HwYDVR0jBBgwFoAUy91pe209x282wOuvTCZNPuCXU2EwDQYJKoZIhvcNAQELBQAD
ggEBAAHJ+D69VaA7OYFew4FZwEAxbqnbRw52hGMhhGf4svx3LQ+bt6Wd5D7Ji6Mw
qDSB1EgKtKcZQqlaNZQyw6d611BsbcjSfz4MVB7ABnwsxoL0HlufQt5LyzhZTBcK
oNDbXSxYqWPMwGwXqKSL92w/EcorLdtbA639I1yuMCaWto8EuVGJKSJOkYLvICaM
/wJUZDEBzoEBjKs0BbNKOJdWKXSh6lcl1Jz1J5e8gJrF3/nAU000dd/lI38WEXCD
mZu0PtcT8Xi3N70uZqRT2cd8k6nJ/EkK4k8/nVDZITNS5uVgpco/2XUOVQo+D3pK
5uSK/qkN8g2hv62muE1sNDb8LLY=
-----END CERTIFICATE-----
