Certificate:
    Data:
        Version: 3 (0x2)
        Serial Number:
            a3:2a:5c:70:23:a8:b7:bc:b9:ab:58:50:26:d6:46:3a
    Signature Algorithm: sha256WithRSAEncryption
        Issuer: C=US, ST=CA, L=Mountain View, O=Aerospike, Inc., OU=Engineering Test, CN=Root CA
        Validity
            Not Before: Nov  5 20:06:02 2020 GMT
            Not After : Nov  4 20:06:02 2024 GMT
        Subject: C=US, ST=CA, O=Aerospike, Inc., OU=Chainless Test Server, CN=bob-cluster-d
        Subject Public Key Info:
            Public Key Algorithm: rsaEncryption
                Public-Key: (2048 bit)
                Modulus:
                    00:a1:27:56:6c:b1:bc:01:a7:e0:de:5d:90:06:54:
                    12:f1:76:d5:09:aa:57:79:f7:3b:32:b1:c7:4e:e8:
                    c3:0e:12:bf:3a:2f:90:8d:65:ab:4d:ad:59:50:9a:
                    de:df:b6:cd:e6:d0:1f:e5:96:ba:65:77:7a:5d:4d:
                    2c:2a:10:4d:c1:71:59:62:51:ec:50:e0:80:08:4d:
                    79:be:62:93:ed:8d:08:fb:1a:b8:58:e1:7c:f6:3c:
                    d6:be:a7:ab:a3:d0:37:da:64:d7:c2:76:33:2d:d8:
                    fe:46:be:89:6f:a3:d2:46:40:ed:56:67:4a:94:69:
                    ab:a8:79:0f:d9:26:73:6c:b7:a4:ca:51:17:cb:80:
                    56:92:02:41:88:6b:aa:c0:c2:f8:d0:9d:f5:c1:0c:
                    9a:fb:95:c6:89:a6:ba:a0:88:26:a9:4c:55:88:1c:
                    5f:f4:db:90:88:d2:dd:d3:b6:b9:a1:4c:fc:72:f7:
                    f3:5c:88:29:41:43:fa:a7:bf:39:1f:83:c9:be:27:
                    b0:68:7a:fe:d4:9a:35:0b:2b:e7:48:fe:e2:2e:3b:
                    4a:90:ed:47:ef:d0:7f:2c:e3:bc:88:4a:5c:e9:44:
                    f4:9e:42:81:43:59:5d:f2:43:37:a6:51:5b:b5:d0:
                    38:e8:02:94:3d:9a:b4:94:3e:a5:39:30:e1:bc:44:
                    0e:b7
                Exponent: 65537 (0x10001)
        X509v3 extensions:
            X509v3 Basic Constraints: critical
                CA:TRUE, pathlen:0
            X509v3 Key Usage: critical
                Digital Signature, Key Encipherment, Certificate Sign, CRL Sign
            X509v3 Extended Key Usage: 
                TLS Web Server Authentication, TLS Web Client Authentication
            Authority Information Access: 
                OCSP - URI:http://ocsp.my.host/

            X509v3 CRL Distribution Points: 

                Full Name:
                  URI:http://myhost.com/myca.crl

            X509v3 Certificate Policies: 
                Policy: X509v3 Any Policy
                  CPS: https://myhost.com/CPS

            X509v3 Subject Key Identifier: 
                86:B3:D8:C8:4F:D9:5B:6A:64:BE:71:4A:7C:B2:A5:60:05:72:59:DD
            X509v3 Authority Key Identifier: 
                keyid:CB:DD:69:7B:6D:3D:C7:6F:36:C0:EB:AF:4C:26:4D:3E:E0:97:53:61

    Signature Algorithm: sha256WithRSAEncryption
         bc:f4:9a:8b:48:95:26:da:35:18:2e:3a:88:9c:97:a2:9e:22:
         e7:f5:22:f3:dc:b5:b9:90:15:86:3a:8b:54:1c:e2:1c:6a:d9:
         00:1a:eb:f2:13:c5:a7:67:bc:82:2c:28:c6:bf:38:ac:19:1a:
         47:90:4e:f4:7c:31:f7:20:77:ab:44:18:e9:7f:be:0a:0e:d0:
         38:9d:ef:95:e4:53:65:02:cc:99:a5:c5:bc:5b:42:7b:79:b9:
         34:d9:9a:00:28:ce:7c:c3:e5:f0:ad:ab:2a:9d:67:97:39:f3:
         65:07:ef:ca:d2:18:b8:05:c1:ca:f3:02:50:82:0a:da:e4:3a:
         4e:d1:d1:5d:40:0c:8f:03:c6:bc:e0:0d:db:1a:eb:1e:a6:73:
         0b:ad:5d:34:66:cd:d7:17:66:c6:2f:c8:a2:0c:e9:19:3b:d1:
         9a:c7:88:4c:63:3c:47:c6:67:86:04:01:00:dd:8d:e0:ee:09:
         1c:14:13:21:a1:55:3d:f6:12:95:c1:cd:52:e1:87:e5:bd:43:
         0a:be:24:76:09:63:d3:4c:0b:16:07:d5:a7:6f:ee:93:27:4e:
         1f:cb:49:7d:5f:81:45:3f:fb:fd:b0:08:6b:ad:81:6e:54:f6:
         81:2d:ce:48:ad:c2:a2:50:54:38:3d:a6:de:a4:a2:3f:0a:b0:
         31:e8:f5:b8
-----BEGIN CERTIFICATE-----
MIIEkTCCA3mgAwIBAgIRAKMqXHAjqLe8uatYUCbWRjowDQYJKoZIhvcNAQELBQAw
eTELMAkGA1UEBhMCVVMxCzAJBgNVBAgMAkNBMRYwFAYDVQQHDA1Nb3VudGFpbiBW
aWV3MRgwFgYDVQQKDA9BZXJvc3Bpa2UsIEluYy4xGTAXBgNVBAsMEEVuZ2luZWVy
aW5nIFRlc3QxEDAOBgNVBAMMB1Jvb3QgQ0EwHhcNMjAxMTA1MjAwNjAyWhcNMjQx
MTA0MjAwNjAyWjBsMQswCQYDVQQGEwJVUzELMAkGA1UECAwCQ0ExGDAWBgNVBAoM
D0Flcm9zcGlrZSwgSW5jLjEeMBwGA1UECwwVQ2hhaW5sZXNzIFRlc3QgU2VydmVy
MRYwFAYDVQQDDA1ib2ItY2x1c3Rlci1kMIIBIjANBgkqhkiG9w0BAQEFAAOCAQ8A
MIIBCgKCAQEAoSdWbLG8Aafg3l2QBlQS8XbVCapXefc7MrHHTujDDhK/Oi+QjWWr
Ta1ZUJre37bN5tAf5Za6ZXd6XU0sKhBNwXFZYlHsUOCACE15vmKT7Y0I+xq4WOF8
9jzWvqero9A32mTXwnYzLdj+Rr6Jb6PSRkDtVmdKlGmrqHkP2SZzbLekylEXy4BW
kgJBiGuqwML40J31wQya+5XGiaa6oIgmqUxViBxf9NuQiNLd07a5oUz8cvfzXIgp
QUP6p785H4PJviewaHr+1Jo1CyvnSP7iLjtKkO1H79B/LOO8iEpc6UT0nkKBQ1ld
8kM3plFbtdA46AKUPZq0lD6lOTDhvEQOtwIDAQABo4IBHzCCARswEgYDVR0TAQH/
BAgwBgEB/wIBADAOBgNVHQ8BAf8EBAMCAaYwHQYDVR0lBBYwFAYIKwYBBQUHAwEG
CCsGAQUFBwMCMDAGCCsGAQUFBwEBBCQwIjAgBggrBgEFBQcwAYYUaHR0cDovL29j
c3AubXkuaG9zdC8wKwYDVR0fBCQwIjAgoB6gHIYaaHR0cDovL215aG9zdC5jb20v
bXljYS5jcmwwNwYDVR0gBDAwLjAsBgRVHSAAMCQwIgYIKwYBBQUHAgEWFmh0dHBz
Oi8vbXlob3N0LmNvbS9DUFMwHQYDVR0OBBYEFIaz2MhP2VtqZL5xSnyypWAFclnd
MB8GA1UdIwQYMBaAFMvdaXttPcdvNsDrr0wmTT7gl1NhMA0GCSqGSIb3DQEBCwUA
A4IBAQC89JqLSJUm2jUYLjqInJeiniLn9SLz3LW5kBWGOotUHOIcatkAGuvyE8Wn
Z7yCLCjGvzisGRpHkE70fDH3IHerRBjpf74KDtA4ne+V5FNlAsyZpcW8W0J7ebk0
2ZoAKM58w+XwrasqnWeXOfNlB+/K0hi4BcHK8wJQggra5DpO0dFdQAyPA8a84A3b
GusepnMLrV00Zs3XF2bGL8iiDOkZO9Gax4hMYzxHxmeGBAEA3Y3g7gkcFBMhoVU9
9hKVwc1S4YflvUMKviR2CWPTTAsWB9Wnb+6TJ04fy0l9X4FFP/v9sAhrrYFuVPaB
Lc5IrcKiUFQ4PabepKI/CrAx6PW4
-----END CERTIFICATE-----
