Certificate:
    Data:
        Version: 3 (0x2)
        Serial Number:
            e5:30:01:75:77:e5:34:e8:0f:94:be:14:c4:51:55:cb
    Signature Algorithm: sha256WithRSAEncryption
        Issuer: C=US, ST=CA, O=Aerospike, Inc., OU=Engineering Test, CN=Chain Signing Cert
        Validity
            Not Before: Nov  5 20:06:01 2020 GMT
            Not After : Nov  4 20:06:01 2024 GMT
        Subject: C=US, ST=CA, O=Aerospike, Inc., OU=Test MultiServer, CN=aerospike-a-0.test-runner
        Subject Public Key Info:
            Public Key Algorithm: rsaEncryption
                Public-Key: (2048 bit)
                Modulus:
                    00:bf:f8:ec:11:6a:cd:3d:2e:7e:4e:ef:e0:df:76:
                    41:3d:af:6d:41:e9:44:ac:2b:57:61:7a:3d:72:b5:
                    5a:5a:7d:68:8c:94:fc:19:a9:5d:9c:f8:ca:e2:ff:
                    d0:aa:bb:5d:cd:dd:d6:08:6c:26:82:e1:ca:a0:bb:
                    c1:20:9f:5f:08:01:6c:b3:31:ad:30:3c:80:fd:bc:
                    f0:25:f4:4a:13:8c:57:fc:09:b8:cf:65:d1:b9:fa:
                    08:b7:96:b1:5f:35:08:33:66:d7:26:0b:be:eb:9e:
                    47:0c:13:1c:22:8d:5f:c7:ed:3d:14:47:ef:70:02:
                    30:e5:b8:2c:7e:90:5f:3b:be:d0:db:73:d1:cd:41:
                    6f:f3:7d:84:6f:79:d3:4e:6f:7e:9a:e7:cf:17:2d:
                    f7:89:c7:92:1c:c1:12:90:11:c7:97:8e:3d:e3:c8:
                    1f:89:fa:75:83:0a:30:b1:f0:16:7c:e7:e2:64:c6:
                    c6:36:3b:15:e9:4c:d1:cb:7d:11:a5:d7:29:a6:a0:
                    a0:ba:ae:05:a2:5a:47:b1:c7:8d:67:57:c4:f2:88:
                    f9:de:ca:e5:89:56:aa:f3:32:b5:47:f7:87:57:5f:
                    94:43:e1:b7:01:9a:09:48:22:6f:a0:fc:d7:97:78:
                    54:8b:4e:34:24:ff:36:ed:a5:36:14:52:3d:40:62:
                    27:6f
                Exponent: 65537 (0x10001)
        X509v3 extensions:
            X509v3 Authority Key Identifier: 
                keyid:BC:72:1F:3D:E6:B5:5C:BD:B9:2E:98:5E:FD:53:F7:F1:EA:17:70:96

            X509v3 Subject Key Identifier: 
                5F:14:D9:22:5C:C2:64:A9:96:06:4F:AF:F4:A7:C6:33:1D:ED:A8:BC
            X509v3 Key Usage: critical
                Digital Signature, Key Encipherment
            X509v3 Extended Key Usage: 
                TLS Web Server Authentication, TLS Web Client Authentication
            X509v3 CRL Distribution Points: 

                Full Name:
                  URI:http://myhost.com/myca1.crl

                Full Name:
                  URI:http://myhost.com/myca2.crl

            X509v3 Certificate Policies: 
                Policy: 2.16.840.1.114412.1.1
                  CPS: https://myhost.com/CPS
                Policy: 2.23.140.1.2.2

            Authority Information Access: 
                OCSP - URI:http://ocsp.my.host/
                CA Issuers - URI:http://my.ca/ca.html

            X509v3 Basic Constraints: critical
                CA:FALSE
            X509v3 Subject Alternative Name: 
                DNS:aerospike-a-0.test-runner, DNS:aerospike-a-1.test-runner, DNS:aerospike-a-2.test-runner, DNS:aerospike-a-3.test-runner, DNS:aerospike-a-4.test-runner, DNS:aerospike-a-5.test-runner
    Signature Algorithm: sha256WithRSAEncryption
         5e:f8:80:d3:85:4e:f5:2d:9a:a6:0b:11:67:7f:52:34:fe:4f:
         03:a4:4e:45:49:f8:53:d4:1f:87:81:44:dc:42:77:27:ee:02:
         e5:1b:b0:00:f7:7f:1f:ba:a7:c9:24:36:a2:d7:24:5d:de:01:
         c4:77:d5:9f:7f:7e:79:27:46:f6:ce:76:6a:26:9b:93:b2:98:
         66:35:ac:e3:f5:56:99:8f:38:19:0e:6f:4f:91:88:04:58:cd:
         84:46:e9:13:6c:62:70:2b:06:ea:33:b6:15:26:58:0c:c1:0f:
         a8:85:f6:96:7e:d7:ab:b9:40:fa:94:2c:9f:fd:c5:c9:9c:b2:
         80:d1:e8:92:8b:e7:74:b8:05:b0:7a:85:b6:a7:1d:e4:b7:28:
         1b:a6:b8:12:01:5e:ce:8f:cb:f0:4f:5b:72:99:eb:c2:bd:c3:
         e7:c6:2a:3f:1f:c0:2c:60:27:02:2b:c2:24:92:4f:dc:3a:fc:
         fe:13:cf:3e:4b:7d:e9:10:0c:50:1f:9a:0d:fe:24:2b:b6:7d:
         5e:55:41:61:57:8f:11:de:fd:6a:8c:f2:0f:18:9a:96:a5:14:
         1c:90:45:56:35:8f:b2:ef:fe:05:a3:4e:f2:68:5e:67:16:84:
         4b:a5:de:79:c1:d5:54:f2:62:42:03:8a:07:a6:c8:b7:48:08:
         e3:a5:f7:43
-----BEGIN CERTIFICATE-----
MIIFijCCBHKgAwIBAgIRAOUwAXV35TToD5S+FMRRVcswDQYJKoZIhvcNAQELBQAw
bDELMAkGA1UEBhMCVVMxCzAJBgNVBAgMAkNBMRgwFgYDVQQKDA9BZXJvc3Bpa2Us
IEluYy4xGTAXBgNVBAsMEEVuZ2luZWVyaW5nIFRlc3QxGzAZBgNVBAMMEkNoYWlu
IFNpZ25pbmcgQ2VydDAeFw0yMDExMDUyMDA2MDFaFw0yNDExMDQyMDA2MDFaMHMx
CzAJBgNVBAYTAlVTMQswCQYDVQQIDAJDQTEYMBYGA1UECgwPQWVyb3NwaWtlLCBJ
bmMuMRkwFwYDVQQLDBBUZXN0IE11bHRpU2VydmVyMSIwIAYDVQQDDBlhZXJvc3Bp
a2UtYS0wLnRlc3QtcnVubmVyMIIBIjANBgkqhkiG9w0BAQEFAAOCAQ8AMIIBCgKC
AQEAv/jsEWrNPS5+Tu/g33ZBPa9tQelErCtXYXo9crVaWn1ojJT8GaldnPjK4v/Q
qrtdzd3WCGwmguHKoLvBIJ9fCAFsszGtMDyA/bzwJfRKE4xX/Am4z2XRufoIt5ax
XzUIM2bXJgu+655HDBMcIo1fx+09FEfvcAIw5bgsfpBfO77Q23PRzUFv832Eb3nT
Tm9+mufPFy33iceSHMESkBHHl44948gfifp1gwowsfAWfOfiZMbGNjsV6UzRy30R
pdcppqCguq4FolpHsceNZ1fE8oj53srliVaq8zK1R/eHV1+UQ+G3AZoJSCJvoPzX
l3hUi040JP827aU2FFI9QGInbwIDAQABo4ICHjCCAhowHwYDVR0jBBgwFoAUvHIf
Pea1XL25Lphe/VP38eoXcJYwHQYDVR0OBBYEFF8U2SJcwmSplgZPr/SnxjMd7ai8
MA4GA1UdDwEB/wQEAwIFoDAdBgNVHSUEFjAUBggrBgEFBQcDAQYIKwYBBQUHAwIw
TwYDVR0fBEgwRjAhoB+gHYYbaHR0cDovL215aG9zdC5jb20vbXljYTEuY3JsMCGg
H6AdhhtodHRwOi8vbXlob3N0LmNvbS9teWNhMi5jcmwwRgYDVR0gBD8wPTAxBglg
hkgBhv1sAQEwJDAiBggrBgEFBQcCARYWaHR0cHM6Ly9teWhvc3QuY29tL0NQUzAI
BgZngQwBAgIwUgYIKwYBBQUHAQEERjBEMCAGCCsGAQUFBzABhhRodHRwOi8vb2Nz
cC5teS5ob3N0LzAgBggrBgEFBQcwAoYUaHR0cDovL215LmNhL2NhLmh0bWwwDAYD
VR0TAQH/BAIwADCBrQYDVR0RBIGlMIGighlhZXJvc3Bpa2UtYS0wLnRlc3QtcnVu
bmVyghlhZXJvc3Bpa2UtYS0xLnRlc3QtcnVubmVyghlhZXJvc3Bpa2UtYS0yLnRl
c3QtcnVubmVyghlhZXJvc3Bpa2UtYS0zLnRlc3QtcnVubmVyghlhZXJvc3Bpa2Ut
YS00LnRlc3QtcnVubmVyghlhZXJvc3Bpa2UtYS01LnRlc3QtcnVubmVyMA0GCSqG
SIb3DQEBCwUAA4IBAQBe+IDThU71LZqmCxFnf1I0/k8DpE5FSfhT1B+HgUTcQncn
7gLlG7AA938fuqfJJDai1yRd3gHEd9Wff355J0b2znZqJpuTsphmNazj9VaZjzgZ
Dm9PkYgEWM2ERukTbGJwKwbqM7YVJlgMwQ+ohfaWfteruUD6lCyf/cXJnLKA0eiS
i+d0uAWweoW2px3ktygbprgSAV7Oj8vwT1tymevCvcPnxio/H8AsYCcCK8Ikkk/c
Ovz+E88+S33pEAxQH5oN/iQrtn1eVUFhV48R3v1qjPIPGJqWpRQckEVWNY+y7/4F
o07yaF5nFoRLpd55wdVU8mJCA4oHpsi3SAjjpfdD
-----END CERTIFICATE-----
