Certificate:
    Data:
        Version: 3 (0x2)
        Serial Number:
            e5:30:01:75:77:e5:34:e8:0f:94:be:14:c4:51:55:cb
    Signature Algorithm: sha256WithRSAEncryption
        Issuer: C=US, ST=CA, O=Aerospike, Inc., OU=Engineering Test, CN=Chain Signing Cert
        Validity
            Not Before: Nov  5 20:06:01 2020 GMT
            Not After : Nov  4 20:06:01 2024 GMT
        Subject: C=US, ST=CA, O=Aerospike, Inc., OU=Test MultiServer, CN=aerospike-a-0.test-runner
        Subject Public Key Info:
            Public Key Algorithm: rsaEncryption
                Public-Key: (2048 bit)
                Modulus:
                    00:bf:f8:ec:11:6a:cd:3d:2e:7e:4e:ef:e0:df:76:
                    41:3d:af:6d:41:e9:44:ac:2b:57:61:7a:3d:72:b5:
                    5a:5a:7d:68:8c:94:fc:19:a9:5d:9c:f8:ca:e2:ff:
                    d0:aa:bb:5d:cd:dd:d6:08:6c:26:82:e1:ca:a0:bb:
                    c1:20:9f:5f:08:01:6c:b3:31:ad:30:3c:80:fd:bc:
                    f0:25:f4:4a:13:8c:57:fc:09:b8:cf:65:d1:b9:fa:
                    08:b7:96:b1:5f:35:08:33:66:d7:26:0b:be:eb:9e:
                    47:0c:13:1c:22:8d:5f:c7:ed:3d:14:47:ef:70:02:
                    30:e5:b8:2c:7e:90:5f:3b:be:d0:db:73:d1:cd:41:
                    6f:f3:7d:84:6f:79:d3:4e:6f:7e:9a:e7:cf:17:2d:
                    f7:89:c7:92:1c:c1:12:90:11:c7:97:8e:3d:e3:c8:
                    1f:89:fa:75:83:0a:30:b1:f0:16:7c:e7:e2:64:c6:
                    c6:36:3b:15:e9:4c:d1:cb:7d:11:a5:d7:29:a6:a0:
                    a0:ba:ae:05:a2:5a:47:b1:c7:8d:67:57:c4:f2:88:
                    f9:de:ca:e5:89:56:aa:f3:32:b5:47:f7:87:57:5f:
                    94:43:e1:b7:01:9a:09:48:22:6f:a0:fc:d7:97:78:
                    54:8b:4e:34:24:ff:36:ed:a5:36:14:52:3d:40:62:
                    27:6f
                Exponent: 65537 (0x10001)
        X509v3 extensions:
            X509v3 Authority Key Identifier: 
                keyid:BC:72:1F:3D:E6:B5:5C:BD:B9:2E:98:5E:FD:53:F7:F1:EA:17:70:96

            X509v3 Subject Key Identifier: 
                5F:14:D9:22:5C:C2:64:A9:96:06:4F:AF:F4:A7:C6:33:1D:ED:A8:BC
            X509v3 Key Usage: critical
                Digital Signature, Key Encipherment
            X509v3 Extended Key Usage: 
                TLS Web Server Authentication, TLS Web Client Authentication
            X509v3 CRL Distribution Points: 

                Full Name:
                  URI:http://myhost.com/myca1.crl

                Full Name:
                  URI:http://myhost.com/myca2.crl

            X509v3 Certificate Policies: 
                Policy: 2.16.840.1.114412.1.1
                  CPS: https://myhost.com/CPS
                Policy: 2.23.140.1.2.2

            Authority Information Access: 
                OCSP - URI:http://ocsp.my.host/
                CA Issuers - URI:http://my.ca/ca.html

            X509v3 Basic Constraints: critical
                CA:FALSE
            X509v3 Subject Alternative Name: 
                DNS:aerospike-a-0.test-runner, DNS:aerospike-a-1.test-runner, DNS:aerospike-a-2.test-runner, DNS:aerospike-a-3.test-runner, DNS:aerospike-a-4.test-runner, DNS:aerospike-a-5.test-runner
    Signature Algorithm: sha256WithRSAEncryption
         5e:f8:80:d3:85:4e:f5:2d:9a:a6:0b:11:67:7f:52:34:fe:4f:
         03:a4:4e:45:49:f8:53:d4:1f:87:81:44:dc:42:77:27:ee:02:
         e5:1b:b0:00:f7:7f:1f:ba:a7:c9:24:36:a2:d7:24:5d:de:01:
         c4:77:d5:9f:7f:7e:79:27:46:f6:ce:76:6a:26:9b:93:b2:98:
         66:35:ac:e3:f5:56:99:8f:38:19:0e:6f:4f:91:88:04:58:cd:
         84:46:e9:13:6c:62:70:2b:06:ea:33:b6:15:26:58:0c:c1:0f:
         a8:85:f6:96:7e:d7:ab:b9:40:fa:94:2c:9f:fd:c5:c9:9c:b2:
         80:d1:e8:92:8b:e7:74:b8:05:b0:7a:85:b6:a7:1d:e4:b7:28:
         1b:a6:b8:12:01:5e:ce:8f:cb:f0:4f:5b:72:99:eb:c2:bd:c3:
         e7:c6:2a:3f:1f:c0:2c:60:27:02:2b:c2:24:92:4f:dc:3a:fc:
         fe:13:cf:3e:4b:7d:e9:10:0c:50:1f:9a:0d:fe:24:2b:b6:7d:
         5e:55:41:61:57:8f:11:de:fd:6a:8c:f2:0f:18:9a:96:a5:14:
         1c:90:45:56:35:8f:b2:ef:fe:05:a3:4e:f2:68:5e:67:16:84:
         4b:a5:de:79:c1:d5:54:f2:62:42:03:8a:07:a6:c8:b7:48:08:
         e3:a5:f7:43
-----BEGIN CERTIFICATE-----
MIIFijCCBHKgAwIBAgIRAOUwAXV35TToD5S+FMRRVcswDQYJKoZIhvcNAQELBQAw
bDELMAkGA1UEBhMCVVMxCzAJBgNVBAgMAkNBMRgwFgYDVQQKDA9BZXJvc3Bpa2Us
IEluYy4xGTAXBgNVBAsMEEVuZ2luZWVyaW5nIFRlc3QxGzAZBgNVBAMMEkNoYWlu
IFNpZ25pbmcgQ2VydDAeFw0yMDExMDUyMDA2MDFaFw0yNDExMDQyMDA2MDFaMHMx
CzAJBgNVBAYTAlVTMQswCQYDVQQIDAJDQTEYMBYGA1UECgwPQWVyb3NwaWtlLCBJ
bmMuMRkwFwYDVQQLDBBUZXN0IE11bHRpU2VydmVyMSIwIAYDVQQDDBlhZXJvc3Bp
a2UtYS0wLnRlc3QtcnVubmVyMIIBIjANBgkqhkiG9w0BAQEFAAOCAQ8AMIIBCgKC
AQEAv/jsEWrNPS5+Tu/g33ZBPa9tQelErCtXYXo9crVaWn1ojJT8GaldnPjK4v/Q
qrtdzd3WCGwmguHKoLvBIJ9fCAFsszGtMDyA/bzwJfRKE4xX/Am4z2XRufoIt5ax
XzUIM2bXJgu+655HDBMcIo1fx+09FEfvcAIw5bgsfpBfO77Q23PRzUFv832Eb3nT
Tm9+mufPFy33iceSHMESkBHHl44948gfifp1gwowsfAWfOfiZMbGNjsV6UzRy30R
pdcppqCguq4FolpHsceNZ1fE8oj53srliVaq8zK1R/eHV1+UQ+G3AZoJSCJvoPzX
l3hUi040JP827aU2FFI9QGInbwIDAQABo4ICHjCCAhowHwYDVR0jBBgwFoAUvHIf
Pea1XL25Lphe/VP38eoXcJYwHQYDVR0OBBYEFF8U2SJcwmSplgZPr/SnxjMd7ai8
MA4GA1UdDwEB/wQEAwIFoDAdBgNVHSUEFjAUBggrBgEFBQcDAQYIKwYBBQUHAwIw
TwYDVR0fBEgwRjAhoB+gHYYbaHR0cDovL215aG9zdC5jb20vbXljYTEuY3JsMCGg
H6AdhhtodHRwOi8vbXlob3N0LmNvbS9teWNhMi5jcmwwRgYDVR0gBD8wPTAxBglg
hkgBhv1sAQEwJDAiBggrBgEFBQcCARYWaHR0cHM6Ly9teWhvc3QuY29tL0NQUzAI
BgZngQwBAgIwUgYIKwYBBQUHAQEERjBEMCAGCCsGAQUFBzABhhRodHRwOi8vb2Nz
cC5teS5ob3N0LzAgBggrBgEFBQcwAoYUaHR0cDovL215LmNhL2NhLmh0bWwwDAYD
VR0TAQH/BAIwADCBrQYDVR0RBIGlMIGighlhZXJvc3Bpa2UtYS0wLnRlc3QtcnVu
bmVyghlhZXJvc3Bpa2UtYS0xLnRlc3QtcnVubmVyghlhZXJvc3Bpa2UtYS0yLnRl
c3QtcnVubmVyghlhZXJvc3Bpa2UtYS0zLnRlc3QtcnVubmVyghlhZXJvc3Bpa2Ut
YS00LnRlc3QtcnVubmVyghlhZXJvc3Bpa2UtYS01LnRlc3QtcnVubmVyMA0GCSqG
SIb3DQEBCwUAA4IBAQBe+IDThU71LZqmCxFnf1I0/k8DpE5FSfhT1B+HgUTcQncn
7gLlG7AA938fuqfJJDai1yRd3gHEd9Wff355J0b2znZqJpuTsphmNazj9VaZjzgZ
Dm9PkYgEWM2ERukTbGJwKwbqM7YVJlgMwQ+ohfaWfteruUD6lCyf/cXJnLKA0eiS
i+d0uAWweoW2px3ktygbprgSAV7Oj8vwT1tymevCvcPnxio/H8AsYCcCK8Ikkk/c
Ovz+E88+S33pEAxQH5oN/iQrtn1eVUFhV48R3v1qjPIPGJqWpRQckEVWNY+y7/4F
o07yaF5nFoRLpd55wdVU8mJCA4oHpsi3SAjjpfdD
-----END CERTIFICATE-----
Certificate:
    Data:
        Version: 3 (0x2)
        Serial Number:
            74:1c:15:a7:eb:cf:32:43:a9:06:23:7b:91:27:17:b2
    Signature Algorithm: sha256WithRSAEncryption
        Issuer: C=US, ST=CA, L=Mountain View, O=Aerospike, Inc., OU=Engineering Test, CN=Root CA
        Validity
            Not Before: Nov  5 20:06:00 2020 GMT
            Not After : Nov  4 20:06:00 2024 GMT
        Subject: C=US, ST=CA, O=Aerospike, Inc., OU=Engineering Test, CN=Chain Signing Cert
        Subject Public Key Info:
            Public Key Algorithm: rsaEncryption
                Public-Key: (2048 bit)
                Modulus:
                    00:b4:f0:1a:07:98:ab:c8:43:ea:b6:f5:34:2d:a5:
                    2b:2e:8e:f1:e1:fc:f7:6e:8c:a7:50:b9:fb:55:da:
                    23:44:ff:2d:e0:68:de:a4:f8:74:47:ef:46:01:11:
                    50:22:7e:bd:d7:38:ba:31:e6:d5:72:78:1e:45:47:
                    49:1b:27:7a:10:1b:f9:34:75:01:44:55:37:be:c8:
                    e7:b4:9f:01:68:f3:e6:4f:35:a5:38:9e:87:8f:1f:
                    53:ea:0b:0b:1d:63:d9:45:1f:4d:be:36:90:ac:b4:
                    af:c7:4d:39:ab:5b:42:e5:81:d7:c8:95:e3:76:7a:
                    fd:86:c4:26:13:2b:27:27:1d:e9:ee:cd:6c:cc:41:
                    47:b1:a5:4e:fb:4d:30:bb:ba:68:1a:3c:e8:71:94:
                    f1:ae:3f:8c:5e:be:72:72:97:3e:e5:f0:1b:d0:f7:
                    5c:14:14:54:3d:2d:3c:0d:75:7f:3d:54:b0:a8:f0:
                    3e:68:c5:b8:5d:35:71:c0:b5:66:88:6a:9e:af:14:
                    34:1f:2f:4d:c6:f2:73:3a:d8:47:9e:b6:d7:b1:54:
                    74:b9:21:1f:62:18:10:ad:09:19:51:65:5b:4f:b2:
                    1a:54:5c:86:c4:42:45:97:d5:2f:2e:54:71:cc:52:
                    76:af:dd:e2:21:a0:ee:9a:4d:2b:79:47:8a:47:30:
                    7f:c7
                Exponent: 65537 (0x10001)
        X509v3 extensions:
            X509v3 Basic Constraints: critical
                CA:TRUE, pathlen:0
            X509v3 Key Usage: critical
                Digital Signature, Key Encipherment, Certificate Sign, CRL Sign
            X509v3 Extended Key Usage: 
                TLS Web Server Authentication, TLS Web Client Authentication
            Authority Information Access: 
                OCSP - URI:http://ocsp.my.host/

            X509v3 CRL Distribution Points: 

                Full Name:
                  URI:http://myhost.com/myca.crl

            X509v3 Certificate Policies: 
                Policy: X509v3 Any Policy
                  CPS: https://myhost.com/CPS

            X509v3 Subject Key Identifier: 
                BC:72:1F:3D:E6:B5:5C:BD:B9:2E:98:5E:FD:53:F7:F1:EA:17:70:96
            X509v3 Authority Key Identifier: 
                keyid:CB:DD:69:7B:6D:3D:C7:6F:36:C0:EB:AF:4C:26:4D:3E:E0:97:53:61

    Signature Algorithm: sha256WithRSAEncryption
         01:c9:f8:3e:bd:55:a0:3b:39:81:5e:c3:81:59:c0:40:31:6e:
         a9:db:47:0e:76:84:63:21:84:67:f8:b2:fc:77:2d:0f:9b:b7:
         a5:9d:e4:3e:c9:8b:a3:30:a8:34:81:d4:48:0a:b4:a7:19:42:
         a9:5a:35:94:32:c3:a7:7a:d7:50:6c:6d:c8:d2:7f:3e:0c:54:
         1e:c0:06:7c:2c:c6:82:f4:1e:5b:9f:42:de:4b:cb:38:59:4c:
         17:0a:a0:d0:db:5d:2c:58:a9:63:cc:c0:6c:17:a8:a4:8b:f7:
         6c:3f:11:ca:2b:2d:db:5b:03:ad:fd:23:5c:ae:30:26:96:b6:
         8f:04:b9:51:89:29:22:4e:91:82:ef:20:26:8c:ff:02:54:64:
         31:01:ce:81:01:8c:ab:34:05:b3:4a:38:97:56:29:74:a1:ea:
         57:25:d4:9c:f5:27:97:bc:80:9a:c5:df:f9:c0:53:4d:34:75:
         df:e5:23:7f:16:11:70:83:99:9b:b4:3e:d7:13:f1:78:b7:37:
         bd:2e:66:a4:53:d9:c7:7c:93:a9:c9:fc:49:0a:e2:4f:3f:9d:
         50:d9:21:33:52:e6:e5:60:a5:ca:3f:d9:75:0e:55:0a:3e:0f:
         7a:4a:e6:e4:8a:fe:a9:0d:f2:0d:a1:bf:ad:a6:b8:4d:6c:34:
         36:fc:2c:b6
-----BEGIN CERTIFICATE-----
MIIEkDCCA3igAwIBAgIQdBwVp+vPMkOpBiN7kScXsjANBgkqhkiG9w0BAQsFADB5
MQswCQYDVQQGEwJVUzELMAkGA1UECAwCQ0ExFjAUBgNVBAcMDU1vdW50YWluIFZp
ZXcxGDAWBgNVBAoMD0Flcm9zcGlrZSwgSW5jLjEZMBcGA1UECwwQRW5naW5lZXJp
bmcgVGVzdDEQMA4GA1UEAwwHUm9vdCBDQTAeFw0yMDExMDUyMDA2MDBaFw0yNDEx
MDQyMDA2MDBaMGwxCzAJBgNVBAYTAlVTMQswCQYDVQQIDAJDQTEYMBYGA1UECgwP
QWVyb3NwaWtlLCBJbmMuMRkwFwYDVQQLDBBFbmdpbmVlcmluZyBUZXN0MRswGQYD
VQQDDBJDaGFpbiBTaWduaW5nIENlcnQwggEiMA0GCSqGSIb3DQEBAQUAA4IBDwAw
ggEKAoIBAQC08BoHmKvIQ+q29TQtpSsujvHh/PdujKdQuftV2iNE/y3gaN6k+HRH
70YBEVAifr3XOLox5tVyeB5FR0kbJ3oQG/k0dQFEVTe+yOe0nwFo8+ZPNaU4noeP
H1PqCwsdY9lFH02+NpCstK/HTTmrW0LlgdfIleN2ev2GxCYTKycnHenuzWzMQUex
pU77TTC7umgaPOhxlPGuP4xevnJylz7l8BvQ91wUFFQ9LTwNdX89VLCo8D5oxbhd
NXHAtWaIap6vFDQfL03G8nM62EeettexVHS5IR9iGBCtCRlRZVtPshpUXIbEQkWX
1S8uVHHMUnav3eIhoO6aTSt5R4pHMH/HAgMBAAGjggEfMIIBGzASBgNVHRMBAf8E
CDAGAQH/AgEAMA4GA1UdDwEB/wQEAwIBpjAdBgNVHSUEFjAUBggrBgEFBQcDAQYI
KwYBBQUHAwIwMAYIKwYBBQUHAQEEJDAiMCAGCCsGAQUFBzABhhRodHRwOi8vb2Nz
cC5teS5ob3N0LzArBgNVHR8EJDAiMCCgHqAchhpodHRwOi8vbXlob3N0LmNvbS9t
eWNhLmNybDA3BgNVHSAEMDAuMCwGBFUdIAAwJDAiBggrBgEFBQcCARYWaHR0cHM6
Ly9teWhvc3QuY29tL0NQUzAdBgNVHQ4EFgQUvHIfPea1XL25Lphe/VP38eoXcJYw
HwYDVR0jBBgwFoAUy91pe209x282wOuvTCZNPuCXU2EwDQYJKoZIhvcNAQELBQAD
ggEBAAHJ+D69VaA7OYFew4FZwEAxbqnbRw52hGMhhGf4svx3LQ+bt6Wd5D7Ji6Mw
qDSB1EgKtKcZQqlaNZQyw6d611BsbcjSfz4MVB7ABnwsxoL0HlufQt5LyzhZTBcK
oNDbXSxYqWPMwGwXqKSL92w/EcorLdtbA639I1yuMCaWto8EuVGJKSJOkYLvICaM
/wJUZDEBzoEBjKs0BbNKOJdWKXSh6lcl1Jz1J5e8gJrF3/nAU000dd/lI38WEXCD
mZu0PtcT8Xi3N70uZqRT2cd8k6nJ/EkK4k8/nVDZITNS5uVgpco/2XUOVQo+D3pK
5uSK/qkN8g2hv62muE1sNDb8LLY=
-----END CERTIFICATE-----
