Certificate:
    Data:
        Version: 3 (0x2)
        Serial Number:
            50:01:22:53:59:fb:df:d2:69:51:63:d3:52:16:c1:46
    Signature Algorithm: sha256WithRSAEncryption
        Issuer: C=US, ST=CA, O=Aerospike, Inc., OU=Engineering Test, CN=Chain Signing Cert
        Validity
            Not Before: Nov  5 20:06:01 2020 GMT
            Not After : Nov  4 20:06:01 2024 GMT
        Subject: C=US, ST=CA, O=Aerospike, Inc., OU=Test MultiServer, CN=aerospike-c-0.test-runner
        Subject Public Key Info:
            Public Key Algorithm: rsaEncryption
                Public-Key: (2048 bit)
                Modulus:
                    00:b3:db:c8:2d:f5:0d:a9:58:51:b0:a5:e1:e1:5e:
                    2a:63:46:cf:aa:32:06:85:2a:c8:09:f9:53:c0:a3:
                    da:54:da:64:03:e9:28:99:53:0b:67:0b:bf:ba:8c:
                    5b:02:26:b7:d3:3a:8b:da:7c:1b:29:10:23:6a:ad:
                    6d:a6:65:11:6c:0a:fe:6a:1e:66:ec:c1:03:f5:62:
                    83:a7:e0:ec:b5:b7:34:6d:89:69:3b:39:db:10:0f:
                    12:57:60:da:2b:a1:1c:f1:84:45:f0:b3:bf:05:50:
                    4c:8f:0d:a6:52:08:a8:e0:b4:4f:a2:fa:7c:4c:ad:
                    fe:b9:2e:ab:16:0f:96:40:cf:7f:e0:4c:4a:19:14:
                    2c:ca:48:23:99:9c:83:1b:8b:39:6c:07:57:f5:d6:
                    e9:84:0b:1a:bb:1c:58:e8:13:d7:1d:30:2a:4c:b6:
                    79:c1:45:3d:f0:41:b1:fd:20:67:a7:07:f8:ba:88:
                    7b:96:e1:20:c3:b8:44:df:c5:ae:5f:ff:d1:8d:9a:
                    ba:e5:17:90:59:16:e4:4c:d1:7f:63:79:e2:42:62:
                    66:7e:fb:21:cd:86:b2:c7:8f:a0:63:27:54:74:ef:
                    e1:31:ea:38:9c:9b:a4:24:55:61:08:a9:d4:51:ba:
                    9a:8a:ff:3d:4d:1c:6c:bd:49:86:5d:73:f8:e7:24:
                    00:af
                Exponent: 65537 (0x10001)
        X509v3 extensions:
            X509v3 Authority Key Identifier: 
                keyid:BC:72:1F:3D:E6:B5:5C:BD:B9:2E:98:5E:FD:53:F7:F1:EA:17:70:96

            X509v3 Subject Key Identifier: 
                1A:94:A2:78:8D:E1:57:FF:F4:7D:42:4D:E6:E6:F9:66:69:E9:DA:25
            X509v3 Key Usage: critical
                Digital Signature, Key Encipherment
            X509v3 Extended Key Usage: 
                TLS Web Server Authentication, TLS Web Client Authentication
            X509v3 CRL Distribution Points: 

                Full Name:
                  URI:http://myhost.com/myca1.crl

                Full Name:
                  URI:http://myhost.com/myca2.crl

            X509v3 Certificate Policies: 
                Policy: 2.16.840.1.114412.1.1
                  CPS: https://myhost.com/CPS
                Policy: 2.23.140.1.2.2

            Authority Information Access: 
                OCSP - URI:http://ocsp.my.host/
                CA Issuers - URI:http://my.ca/ca.html

            X509v3 Basic Constraints: critical
                CA:FALSE
            X509v3 Subject Alternative Name: 
                DNS:aerospike-c-0.test-runner, DNS:aerospike-c-1.test-runner, DNS:aerospike-c-2.test-runner, DNS:aerospike-c-3.test-runner, DNS:aerospike-c-4.test-runner, DNS:aerospike-c-5.test-runner
    Signature Algorithm: sha256WithRSAEncryption
         64:2e:6a:f6:01:c1:0f:85:64:74:e9:02:ca:5a:e8:30:2b:22:
         03:5d:7d:e7:38:67:88:ba:04:50:5d:3e:c5:9f:40:67:b3:95:
         67:b4:22:23:52:ad:a0:8c:bf:ee:08:36:34:79:3e:b3:d3:85:
         75:bc:4b:3a:0b:cc:87:b0:fa:e4:70:e0:a8:14:37:10:7a:99:
         e3:d4:5d:8c:2d:55:24:45:eb:72:23:c1:bb:71:77:ec:d1:ff:
         a3:69:3c:c6:a4:f4:47:b6:f3:d3:e4:5e:40:3a:c8:b8:0b:96:
         2a:3e:72:ab:44:ed:46:17:b8:82:fc:12:34:53:95:cf:8f:1e:
         8b:52:1d:14:0c:60:e9:cf:23:35:05:6d:41:fc:dd:c7:10:c8:
         bb:45:ad:68:c5:ec:7e:8d:ed:6c:40:dd:ca:04:c0:88:e1:d6:
         b2:da:6e:a4:01:58:6b:e1:b6:c9:f2:96:f9:c3:5f:dc:fe:56:
         82:db:48:fb:a4:b6:f1:52:e2:52:87:f9:10:fe:79:09:61:95:
         96:e4:6a:eb:a4:5e:47:7d:af:02:22:48:56:a3:49:bb:15:40:
         87:61:79:8c:73:2c:a1:da:cd:20:af:06:4f:a9:f7:2d:db:b4:
         c8:d7:6a:05:75:99:77:c0:f6:fe:2e:b9:60:2a:c1:1e:1b:77:
         e0:65:3b:24
-----BEGIN CERTIFICATE-----
MIIFiTCCBHGgAwIBAgIQUAEiU1n739JpUWPTUhbBRjANBgkqhkiG9w0BAQsFADBs
MQswCQYDVQQGEwJVUzELMAkGA1UECAwCQ0ExGDAWBgNVBAoMD0Flcm9zcGlrZSwg
SW5jLjEZMBcGA1UECwwQRW5naW5lZXJpbmcgVGVzdDEbMBkGA1UEAwwSQ2hhaW4g
U2lnbmluZyBDZXJ0MB4XDTIwMTEwNTIwMDYwMVoXDTI0MTEwNDIwMDYwMVowczEL
MAkGA1UEBhMCVVMxCzAJBgNVBAgMAkNBMRgwFgYDVQQKDA9BZXJvc3Bpa2UsIElu
Yy4xGTAXBgNVBAsMEFRlc3QgTXVsdGlTZXJ2ZXIxIjAgBgNVBAMMGWFlcm9zcGlr
ZS1jLTAudGVzdC1ydW5uZXIwggEiMA0GCSqGSIb3DQEBAQUAA4IBDwAwggEKAoIB
AQCz28gt9Q2pWFGwpeHhXipjRs+qMgaFKsgJ+VPAo9pU2mQD6SiZUwtnC7+6jFsC
JrfTOovafBspECNqrW2mZRFsCv5qHmbswQP1YoOn4Oy1tzRtiWk7OdsQDxJXYNor
oRzxhEXws78FUEyPDaZSCKjgtE+i+nxMrf65LqsWD5ZAz3/gTEoZFCzKSCOZnIMb
izlsB1f11umECxq7HFjoE9cdMCpMtnnBRT3wQbH9IGenB/i6iHuW4SDDuETfxa5f
/9GNmrrlF5BZFuRM0X9jeeJCYmZ++yHNhrLHj6BjJ1R07+Ex6jicm6QkVWEIqdRR
upqK/z1NHGy9SYZdc/jnJACvAgMBAAGjggIeMIICGjAfBgNVHSMEGDAWgBS8ch89
5rVcvbkumF79U/fx6hdwljAdBgNVHQ4EFgQUGpSieI3hV//0fUJN5ub5Zmnp2iUw
DgYDVR0PAQH/BAQDAgWgMB0GA1UdJQQWMBQGCCsGAQUFBwMBBggrBgEFBQcDAjBP
BgNVHR8ESDBGMCGgH6AdhhtodHRwOi8vbXlob3N0LmNvbS9teWNhMS5jcmwwIaAf
oB2GG2h0dHA6Ly9teWhvc3QuY29tL215Y2EyLmNybDBGBgNVHSAEPzA9MDEGCWCG
SAGG/WwBATAkMCIGCCsGAQUFBwIBFhZodHRwczovL215aG9zdC5jb20vQ1BTMAgG
BmeBDAECAjBSBggrBgEFBQcBAQRGMEQwIAYIKwYBBQUHMAGGFGh0dHA6Ly9vY3Nw
Lm15Lmhvc3QvMCAGCCsGAQUFBzAChhRodHRwOi8vbXkuY2EvY2EuaHRtbDAMBgNV
HRMBAf8EAjAAMIGtBgNVHREEgaUwgaKCGWFlcm9zcGlrZS1jLTAudGVzdC1ydW5u
ZXKCGWFlcm9zcGlrZS1jLTEudGVzdC1ydW5uZXKCGWFlcm9zcGlrZS1jLTIudGVz
dC1ydW5uZXKCGWFlcm9zcGlrZS1jLTMudGVzdC1ydW5uZXKCGWFlcm9zcGlrZS1j
LTQudGVzdC1ydW5uZXKCGWFlcm9zcGlrZS1jLTUudGVzdC1ydW5uZXIwDQYJKoZI
hvcNAQELBQADggEBAGQuavYBwQ+FZHTpAspa6DArIgNdfec4Z4i6BFBdPsWfQGez
lWe0IiNSraCMv+4INjR5PrPThXW8SzoLzIew+uRw4KgUNxB6mePUXYwtVSRF63Ij
wbtxd+zR/6NpPMak9Ee289PkXkA6yLgLlio+cqtE7UYXuIL8EjRTlc+PHotSHRQM
YOnPIzUFbUH83ccQyLtFrWjF7H6N7WxA3coEwIjh1rLabqQBWGvhtsnylvnDX9z+
VoLbSPuktvFS4lKH+RD+eQlhlZbkauukXkd9rwIiSFajSbsVQIdheYxzLKHazSCv
Bk+p9y3btMjXagV1mXfA9v4uuWAqwR4bd+BlOyQ=
-----END CERTIFICATE-----
