Certificate:
    Data:
        Version: 3 (0x2)
        Serial Number:
            50:01:22:53:59:fb:df:d2:69:51:63:d3:52:16:c1:46
    Signature Algorithm: sha256WithRSAEncryption
        Issuer: C=US, ST=CA, O=Aerospike, Inc., OU=Engineering Test, CN=Chain Signing Cert
        Validity
            Not Before: Nov  5 20:06:01 2020 GMT
            Not After : Nov  4 20:06:01 2024 GMT
        Subject: C=US, ST=CA, O=Aerospike, Inc., OU=Test MultiServer, CN=aerospike-c-0.test-runner
        Subject Public Key Info:
            Public Key Algorithm: rsaEncryption
                Public-Key: (2048 bit)
                Modulus:
                    00:b3:db:c8:2d:f5:0d:a9:58:51:b0:a5:e1:e1:5e:
                    2a:63:46:cf:aa:32:06:85:2a:c8:09:f9:53:c0:a3:
                    da:54:da:64:03:e9:28:99:53:0b:67:0b:bf:ba:8c:
                    5b:02:26:b7:d3:3a:8b:da:7c:1b:29:10:23:6a:ad:
                    6d:a6:65:11:6c:0a:fe:6a:1e:66:ec:c1:03:f5:62:
                    83:a7:e0:ec:b5:b7:34:6d:89:69:3b:39:db:10:0f:
                    12:57:60:da:2b:a1:1c:f1:84:45:f0:b3:bf:05:50:
                    4c:8f:0d:a6:52:08:a8:e0:b4:4f:a2:fa:7c:4c:ad:
                    fe:b9:2e:ab:16:0f:96:40:cf:7f:e0:4c:4a:19:14:
                    2c:ca:48:23:99:9c:83:1b:8b:39:6c:07:57:f5:d6:
                    e9:84:0b:1a:bb:1c:58:e8:13:d7:1d:30:2a:4c:b6:
                    79:c1:45:3d:f0:41:b1:fd:20:67:a7:07:f8:ba:88:
                    7b:96:e1:20:c3:b8:44:df:c5:ae:5f:ff:d1:8d:9a:
                    ba:e5:17:90:59:16:e4:4c:d1:7f:63:79:e2:42:62:
                    66:7e:fb:21:cd:86:b2:c7:8f:a0:63:27:54:74:ef:
                    e1:31:ea:38:9c:9b:a4:24:55:61:08:a9:d4:51:ba:
                    9a:8a:ff:3d:4d:1c:6c:bd:49:86:5d:73:f8:e7:24:
                    00:af
                Exponent: 65537 (0x10001)
        X509v3 extensions:
            X509v3 Authority Key Identifier: 
                keyid:BC:72:1F:3D:E6:B5:5C:BD:B9:2E:98:5E:FD:53:F7:F1:EA:17:70:96

            X509v3 Subject Key Identifier: 
                1A:94:A2:78:8D:E1:57:FF:F4:7D:42:4D:E6:E6:F9:66:69:E9:DA:25
            X509v3 Key Usage: critical
                Digital Signature, Key Encipherment
            X509v3 Extended Key Usage: 
                TLS Web Server Authentication, TLS Web Client Authentication
            X509v3 CRL Distribution Points: 

                Full Name:
                  URI:http://myhost.com/myca1.crl

                Full Name:
                  URI:http://myhost.com/myca2.crl

            X509v3 Certificate Policies: 
                Policy: 2.16.840.1.114412.1.1
                  CPS: https://myhost.com/CPS
                Policy: 2.23.140.1.2.2

            Authority Information Access: 
                OCSP - URI:http://ocsp.my.host/
                CA Issuers - URI:http://my.ca/ca.html

            X509v3 Basic Constraints: critical
                CA:FALSE
            X509v3 Subject Alternative Name: 
                DNS:aerospike-c-0.test-runner, DNS:aerospike-c-1.test-runner, DNS:aerospike-c-2.test-runner, DNS:aerospike-c-3.test-runner, DNS:aerospike-c-4.test-runner, DNS:aerospike-c-5.test-runner
    Signature Algorithm: sha256WithRSAEncryption
         64:2e:6a:f6:01:c1:0f:85:64:74:e9:02:ca:5a:e8:30:2b:22:
         03:5d:7d:e7:38:67:88:ba:04:50:5d:3e:c5:9f:40:67:b3:95:
         67:b4:22:23:52:ad:a0:8c:bf:ee:08:36:34:79:3e:b3:d3:85:
         75:bc:4b:3a:0b:cc:87:b0:fa:e4:70:e0:a8:14:37:10:7a:99:
         e3:d4:5d:8c:2d:55:24:45:eb:72:23:c1:bb:71:77:ec:d1:ff:
         a3:69:3c:c6:a4:f4:47:b6:f3:d3:e4:5e:40:3a:c8:b8:0b:96:
         2a:3e:72:ab:44:ed:46:17:b8:82:fc:12:34:53:95:cf:8f:1e:
         8b:52:1d:14:0c:60:e9:cf:23:35:05:6d:41:fc:dd:c7:10:c8:
         bb:45:ad:68:c5:ec:7e:8d:ed:6c:40:dd:ca:04:c0:88:e1:d6:
         b2:da:6e:a4:01:58:6b:e1:b6:c9:f2:96:f9:c3:5f:dc:fe:56:
         82:db:48:fb:a4:b6:f1:52:e2:52:87:f9:10:fe:79:09:61:95:
         96:e4:6a:eb:a4:5e:47:7d:af:02:22:48:56:a3:49:bb:15:40:
         87:61:79:8c:73:2c:a1:da:cd:20:af:06:4f:a9:f7:2d:db:b4:
         c8:d7:6a:05:75:99:77:c0:f6:fe:2e:b9:60:2a:c1:1e:1b:77:
         e0:65:3b:24
-----BEGIN CERTIFICATE-----
MIIFiTCCBHGgAwIBAgIQUAEiU1n739JpUWPTUhbBRjANBgkqhkiG9w0BAQsFADBs
MQswCQYDVQQGEwJVUzELMAkGA1UECAwCQ0ExGDAWBgNVBAoMD0Flcm9zcGlrZSwg
SW5jLjEZMBcGA1UECwwQRW5naW5lZXJpbmcgVGVzdDEbMBkGA1UEAwwSQ2hhaW4g
U2lnbmluZyBDZXJ0MB4XDTIwMTEwNTIwMDYwMVoXDTI0MTEwNDIwMDYwMVowczEL
MAkGA1UEBhMCVVMxCzAJBgNVBAgMAkNBMRgwFgYDVQQKDA9BZXJvc3Bpa2UsIElu
Yy4xGTAXBgNVBAsMEFRlc3QgTXVsdGlTZXJ2ZXIxIjAgBgNVBAMMGWFlcm9zcGlr
ZS1jLTAudGVzdC1ydW5uZXIwggEiMA0GCSqGSIb3DQEBAQUAA4IBDwAwggEKAoIB
AQCz28gt9Q2pWFGwpeHhXipjRs+qMgaFKsgJ+VPAo9pU2mQD6SiZUwtnC7+6jFsC
JrfTOovafBspECNqrW2mZRFsCv5qHmbswQP1YoOn4Oy1tzRtiWk7OdsQDxJXYNor
oRzxhEXws78FUEyPDaZSCKjgtE+i+nxMrf65LqsWD5ZAz3/gTEoZFCzKSCOZnIMb
izlsB1f11umECxq7HFjoE9cdMCpMtnnBRT3wQbH9IGenB/i6iHuW4SDDuETfxa5f
/9GNmrrlF5BZFuRM0X9jeeJCYmZ++yHNhrLHj6BjJ1R07+Ex6jicm6QkVWEIqdRR
upqK/z1NHGy9SYZdc/jnJACvAgMBAAGjggIeMIICGjAfBgNVHSMEGDAWgBS8ch89
5rVcvbkumF79U/fx6hdwljAdBgNVHQ4EFgQUGpSieI3hV//0fUJN5ub5Zmnp2iUw
DgYDVR0PAQH/BAQDAgWgMB0GA1UdJQQWMBQGCCsGAQUFBwMBBggrBgEFBQcDAjBP
BgNVHR8ESDBGMCGgH6AdhhtodHRwOi8vbXlob3N0LmNvbS9teWNhMS5jcmwwIaAf
oB2GG2h0dHA6Ly9teWhvc3QuY29tL215Y2EyLmNybDBGBgNVHSAEPzA9MDEGCWCG
SAGG/WwBATAkMCIGCCsGAQUFBwIBFhZodHRwczovL215aG9zdC5jb20vQ1BTMAgG
BmeBDAECAjBSBggrBgEFBQcBAQRGMEQwIAYIKwYBBQUHMAGGFGh0dHA6Ly9vY3Nw
Lm15Lmhvc3QvMCAGCCsGAQUFBzAChhRodHRwOi8vbXkuY2EvY2EuaHRtbDAMBgNV
HRMBAf8EAjAAMIGtBgNVHREEgaUwgaKCGWFlcm9zcGlrZS1jLTAudGVzdC1ydW5u
ZXKCGWFlcm9zcGlrZS1jLTEudGVzdC1ydW5uZXKCGWFlcm9zcGlrZS1jLTIudGVz
dC1ydW5uZXKCGWFlcm9zcGlrZS1jLTMudGVzdC1ydW5uZXKCGWFlcm9zcGlrZS1j
LTQudGVzdC1ydW5uZXKCGWFlcm9zcGlrZS1jLTUudGVzdC1ydW5uZXIwDQYJKoZI
hvcNAQELBQADggEBAGQuavYBwQ+FZHTpAspa6DArIgNdfec4Z4i6BFBdPsWfQGez
lWe0IiNSraCMv+4INjR5PrPThXW8SzoLzIew+uRw4KgUNxB6mePUXYwtVSRF63Ij
wbtxd+zR/6NpPMak9Ee289PkXkA6yLgLlio+cqtE7UYXuIL8EjRTlc+PHotSHRQM
YOnPIzUFbUH83ccQyLtFrWjF7H6N7WxA3coEwIjh1rLabqQBWGvhtsnylvnDX9z+
VoLbSPuktvFS4lKH+RD+eQlhlZbkauukXkd9rwIiSFajSbsVQIdheYxzLKHazSCv
Bk+p9y3btMjXagV1mXfA9v4uuWAqwR4bd+BlOyQ=
-----END CERTIFICATE-----
Certificate:
    Data:
        Version: 3 (0x2)
        Serial Number:
            74:1c:15:a7:eb:cf:32:43:a9:06:23:7b:91:27:17:b2
    Signature Algorithm: sha256WithRSAEncryption
        Issuer: C=US, ST=CA, L=Mountain View, O=Aerospike, Inc., OU=Engineering Test, CN=Root CA
        Validity
            Not Before: Nov  5 20:06:00 2020 GMT
            Not After : Nov  4 20:06:00 2024 GMT
        Subject: C=US, ST=CA, O=Aerospike, Inc., OU=Engineering Test, CN=Chain Signing Cert
        Subject Public Key Info:
            Public Key Algorithm: rsaEncryption
                Public-Key: (2048 bit)
                Modulus:
                    00:b4:f0:1a:07:98:ab:c8:43:ea:b6:f5:34:2d:a5:
                    2b:2e:8e:f1:e1:fc:f7:6e:8c:a7:50:b9:fb:55:da:
                    23:44:ff:2d:e0:68:de:a4:f8:74:47:ef:46:01:11:
                    50:22:7e:bd:d7:38:ba:31:e6:d5:72:78:1e:45:47:
                    49:1b:27:7a:10:1b:f9:34:75:01:44:55:37:be:c8:
                    e7:b4:9f:01:68:f3:e6:4f:35:a5:38:9e:87:8f:1f:
                    53:ea:0b:0b:1d:63:d9:45:1f:4d:be:36:90:ac:b4:
                    af:c7:4d:39:ab:5b:42:e5:81:d7:c8:95:e3:76:7a:
                    fd:86:c4:26:13:2b:27:27:1d:e9:ee:cd:6c:cc:41:
                    47:b1:a5:4e:fb:4d:30:bb:ba:68:1a:3c:e8:71:94:
                    f1:ae:3f:8c:5e:be:72:72:97:3e:e5:f0:1b:d0:f7:
                    5c:14:14:54:3d:2d:3c:0d:75:7f:3d:54:b0:a8:f0:
                    3e:68:c5:b8:5d:35:71:c0:b5:66:88:6a:9e:af:14:
                    34:1f:2f:4d:c6:f2:73:3a:d8:47:9e:b6:d7:b1:54:
                    74:b9:21:1f:62:18:10:ad:09:19:51:65:5b:4f:b2:
                    1a:54:5c:86:c4:42:45:97:d5:2f:2e:54:71:cc:52:
                    76:af:dd:e2:21:a0:ee:9a:4d:2b:79:47:8a:47:30:
                    7f:c7
                Exponent: 65537 (0x10001)
        X509v3 extensions:
            X509v3 Basic Constraints: critical
                CA:TRUE, pathlen:0
            X509v3 Key Usage: critical
                Digital Signature, Key Encipherment, Certificate Sign, CRL Sign
            X509v3 Extended Key Usage: 
                TLS Web Server Authentication, TLS Web Client Authentication
            Authority Information Access: 
                OCSP - URI:http://ocsp.my.host/

            X509v3 CRL Distribution Points: 

                Full Name:
                  URI:http://myhost.com/myca.crl

            X509v3 Certificate Policies: 
                Policy: X509v3 Any Policy
                  CPS: https://myhost.com/CPS

            X509v3 Subject Key Identifier: 
                BC:72:1F:3D:E6:B5:5C:BD:B9:2E:98:5E:FD:53:F7:F1:EA:17:70:96
            X509v3 Authority Key Identifier: 
                keyid:CB:DD:69:7B:6D:3D:C7:6F:36:C0:EB:AF:4C:26:4D:3E:E0:97:53:61

    Signature Algorithm: sha256WithRSAEncryption
         01:c9:f8:3e:bd:55:a0:3b:39:81:5e:c3:81:59:c0:40:31:6e:
         a9:db:47:0e:76:84:63:21:84:67:f8:b2:fc:77:2d:0f:9b:b7:
         a5:9d:e4:3e:c9:8b:a3:30:a8:34:81:d4:48:0a:b4:a7:19:42:
         a9:5a:35:94:32:c3:a7:7a:d7:50:6c:6d:c8:d2:7f:3e:0c:54:
         1e:c0:06:7c:2c:c6:82:f4:1e:5b:9f:42:de:4b:cb:38:59:4c:
         17:0a:a0:d0:db:5d:2c:58:a9:63:cc:c0:6c:17:a8:a4:8b:f7:
         6c:3f:11:ca:2b:2d:db:5b:03:ad:fd:23:5c:ae:30:26:96:b6:
         8f:04:b9:51:89:29:22:4e:91:82:ef:20:26:8c:ff:02:54:64:
         31:01:ce:81:01:8c:ab:34:05:b3:4a:38:97:56:29:74:a1:ea:
         57:25:d4:9c:f5:27:97:bc:80:9a:c5:df:f9:c0:53:4d:34:75:
         df:e5:23:7f:16:11:70:83:99:9b:b4:3e:d7:13:f1:78:b7:37:
         bd:2e:66:a4:53:d9:c7:7c:93:a9:c9:fc:49:0a:e2:4f:3f:9d:
         50:d9:21:33:52:e6:e5:60:a5:ca:3f:d9:75:0e:55:0a:3e:0f:
         7a:4a:e6:e4:8a:fe:a9:0d:f2:0d:a1:bf:ad:a6:b8:4d:6c:34:
         36:fc:2c:b6
-----BEGIN CERTIFICATE-----
MIIEkDCCA3igAwIBAgIQdBwVp+vPMkOpBiN7kScXsjANBgkqhkiG9w0BAQsFADB5
MQswCQYDVQQGEwJVUzELMAkGA1UECAwCQ0ExFjAUBgNVBAcMDU1vdW50YWluIFZp
ZXcxGDAWBgNVBAoMD0Flcm9zcGlrZSwgSW5jLjEZMBcGA1UECwwQRW5naW5lZXJp
bmcgVGVzdDEQMA4GA1UEAwwHUm9vdCBDQTAeFw0yMDExMDUyMDA2MDBaFw0yNDEx
MDQyMDA2MDBaMGwxCzAJBgNVBAYTAlVTMQswCQYDVQQIDAJDQTEYMBYGA1UECgwP
QWVyb3NwaWtlLCBJbmMuMRkwFwYDVQQLDBBFbmdpbmVlcmluZyBUZXN0MRswGQYD
VQQDDBJDaGFpbiBTaWduaW5nIENlcnQwggEiMA0GCSqGSIb3DQEBAQUAA4IBDwAw
ggEKAoIBAQC08BoHmKvIQ+q29TQtpSsujvHh/PdujKdQuftV2iNE/y3gaN6k+HRH
70YBEVAifr3XOLox5tVyeB5FR0kbJ3oQG/k0dQFEVTe+yOe0nwFo8+ZPNaU4noeP
H1PqCwsdY9lFH02+NpCstK/HTTmrW0LlgdfIleN2ev2GxCYTKycnHenuzWzMQUex
pU77TTC7umgaPOhxlPGuP4xevnJylz7l8BvQ91wUFFQ9LTwNdX89VLCo8D5oxbhd
NXHAtWaIap6vFDQfL03G8nM62EeettexVHS5IR9iGBCtCRlRZVtPshpUXIbEQkWX
1S8uVHHMUnav3eIhoO6aTSt5R4pHMH/HAgMBAAGjggEfMIIBGzASBgNVHRMBAf8E
CDAGAQH/AgEAMA4GA1UdDwEB/wQEAwIBpjAdBgNVHSUEFjAUBggrBgEFBQcDAQYI
KwYBBQUHAwIwMAYIKwYBBQUHAQEEJDAiMCAGCCsGAQUFBzABhhRodHRwOi8vb2Nz
cC5teS5ob3N0LzArBgNVHR8EJDAiMCCgHqAchhpodHRwOi8vbXlob3N0LmNvbS9t
eWNhLmNybDA3BgNVHSAEMDAuMCwGBFUdIAAwJDAiBggrBgEFBQcCARYWaHR0cHM6
Ly9teWhvc3QuY29tL0NQUzAdBgNVHQ4EFgQUvHIfPea1XL25Lphe/VP38eoXcJYw
HwYDVR0jBBgwFoAUy91pe209x282wOuvTCZNPuCXU2EwDQYJKoZIhvcNAQELBQAD
ggEBAAHJ+D69VaA7OYFew4FZwEAxbqnbRw52hGMhhGf4svx3LQ+bt6Wd5D7Ji6Mw
qDSB1EgKtKcZQqlaNZQyw6d611BsbcjSfz4MVB7ABnwsxoL0HlufQt5LyzhZTBcK
oNDbXSxYqWPMwGwXqKSL92w/EcorLdtbA639I1yuMCaWto8EuVGJKSJOkYLvICaM
/wJUZDEBzoEBjKs0BbNKOJdWKXSh6lcl1Jz1J5e8gJrF3/nAU000dd/lI38WEXCD
mZu0PtcT8Xi3N70uZqRT2cd8k6nJ/EkK4k8/nVDZITNS5uVgpco/2XUOVQo+D3pK
5uSK/qkN8g2hv62muE1sNDb8LLY=
-----END CERTIFICATE-----
