Certificate:
    Data:
        Version: 3 (0x2)
        Serial Number:
            06:af:db:e4:42:db:b5:f0:0e:a3:37:1a:6e:c8:1a:c9
    Signature Algorithm: sha256WithRSAEncryption
        Issuer: C=US, ST=CA, O=Aerospike, Inc., OU=Engineering Test, CN=Chain Signing Cert
        Validity
            Not Before: Nov  5 20:06:00 2020 GMT
            Not After : Nov  4 20:06:00 2024 GMT
        Subject: C=US, ST=CA, O=Aerospike, Inc., OU=Test Client, CN=generic_client
        Subject Public Key Info:
            Public Key Algorithm: rsaEncryption
                Public-Key: (2048 bit)
                Modulus:
                    00:db:51:85:e4:67:05:8a:72:15:f2:b7:b7:64:da:
                    64:69:67:85:54:ef:39:1b:fd:a3:7a:ad:33:b2:60:
                    d4:ec:e0:ac:ba:8f:96:79:9b:7a:03:d2:ad:ba:86:
                    cd:af:ae:13:bb:8d:34:c2:bb:8a:aa:af:e6:cf:24:
                    02:85:a3:61:a9:60:fa:57:7a:43:a0:f7:64:73:f6:
                    5b:15:ff:81:3c:b6:e7:1c:e6:b2:c6:ba:90:c6:2a:
                    a8:cc:51:b8:2c:b7:58:0a:d8:b6:59:68:28:98:de:
                    08:05:30:d4:33:6a:e7:e5:53:8f:06:6e:17:70:4c:
                    e1:f0:7e:5e:3e:cc:0a:6c:e3:ce:d8:3f:ce:95:49:
                    8b:e5:4c:bd:0d:1d:c4:23:d3:74:de:fe:69:97:c2:
                    67:c8:8e:68:05:96:24:10:8d:cb:98:80:5d:5d:42:
                    ed:a4:99:bc:d9:a7:5b:d5:b5:fc:4b:d9:93:63:e7:
                    b9:cf:eb:79:50:a5:8a:c6:5e:d1:7c:16:94:1f:11:
                    fe:cf:9f:24:ce:fa:f0:28:e8:7d:0b:3e:9e:c9:6a:
                    d5:b8:48:d6:cc:d7:e9:c3:be:1c:7b:47:f0:a3:16:
                    a6:23:1e:1e:c7:f5:da:70:bb:48:e8:a1:b3:ab:bc:
                    9b:23:fe:96:71:ad:48:1a:34:18:84:9c:8c:67:54:
                    29:57
                Exponent: 65537 (0x10001)
        X509v3 extensions:
            X509v3 Authority Key Identifier: 
                keyid:BC:72:1F:3D:E6:B5:5C:BD:B9:2E:98:5E:FD:53:F7:F1:EA:17:70:96

            X509v3 Subject Key Identifier: 
                1B:75:7B:20:B5:E6:85:C9:F9:5F:B6:47:54:DA:52:31:31:90:49:98
            X509v3 Key Usage: critical
                Digital Signature, Key Encipherment
            X509v3 Extended Key Usage: 
                TLS Web Server Authentication, TLS Web Client Authentication
            X509v3 CRL Distribution Points: 

                Full Name:
                  URI:http://myhost.com/myca1.crl

                Full Name:
                  URI:http://myhost.com/myca2.crl

            X509v3 Certificate Policies: 
                Policy: 2.16.840.1.114412.1.1
                  CPS: https://myhost.com/CPS
                Policy: 2.23.140.1.2.2

            Authority Information Access: 
                OCSP - URI:http://ocsp.my.host/
                CA Issuers - URI:http://my.ca/ca.html

            X509v3 Basic Constraints: critical
                CA:FALSE
            X509v3 Subject Alternative Name: 
                DNS:generic_client
    Signature Algorithm: sha256WithRSAEncryption
         74:98:9d:5e:c6:4a:ee:3d:fb:63:eb:71:be:43:8e:a9:04:f9:
         ab:31:83:32:12:bf:6d:80:9c:b1:af:41:8f:d9:55:0a:87:f9:
         cb:a2:2d:24:75:15:75:d7:6c:ff:a8:9a:03:3b:02:f4:aa:76:
         e0:33:f6:04:32:19:17:08:58:de:f2:23:ff:a0:15:b4:bb:78:
         2b:57:61:77:86:aa:f2:19:8d:75:57:13:8f:46:1c:0c:bf:0d:
         16:ac:f8:ff:27:df:39:ad:42:0f:a6:95:3e:be:2e:1b:3f:07:
         8e:f8:4a:69:b7:b3:f6:79:be:eb:16:7b:38:64:18:db:47:db:
         7b:d9:87:4d:f3:34:aa:8c:0d:75:ec:d3:b8:88:e6:74:f8:fc:
         64:37:18:1f:3a:b8:b3:06:3c:68:6b:8f:78:99:14:f4:07:9e:
         b1:6e:f1:ca:9b:57:da:b7:dd:2d:bd:a5:35:74:9a:9a:64:47:
         b8:21:e5:a8:96:89:9a:04:d3:6c:d8:0f:19:1f:1d:a2:81:db:
         1d:bb:27:36:cf:c4:91:0f:bc:5f:94:84:67:22:a4:fd:fc:79:
         b0:fd:23:52:b6:f9:a1:2e:7f:64:c3:0c:08:2c:3b:55:06:d6:
         db:b3:4b:d2:9c:3f:c2:5f:6f:14:75:5d:a6:b6:b1:10:75:8f:
         51:28:b9:34
-----BEGIN CERTIFICATE-----
MIIE5DCCA8ygAwIBAgIQBq/b5ELbtfAOozcabsgayTANBgkqhkiG9w0BAQsFADBs
MQswCQYDVQQGEwJVUzELMAkGA1UECAwCQ0ExGDAWBgNVBAoMD0Flcm9zcGlrZSwg
SW5jLjEZMBcGA1UECwwQRW5naW5lZXJpbmcgVGVzdDEbMBkGA1UEAwwSQ2hhaW4g
U2lnbmluZyBDZXJ0MB4XDTIwMTEwNTIwMDYwMFoXDTI0MTEwNDIwMDYwMFowYzEL
MAkGA1UEBhMCVVMxCzAJBgNVBAgMAkNBMRgwFgYDVQQKDA9BZXJvc3Bpa2UsIElu
Yy4xFDASBgNVBAsMC1Rlc3QgQ2xpZW50MRcwFQYDVQQDDA5nZW5lcmljX2NsaWVu
dDCCASIwDQYJKoZIhvcNAQEBBQADggEPADCCAQoCggEBANtRheRnBYpyFfK3t2Ta
ZGlnhVTvORv9o3qtM7Jg1OzgrLqPlnmbegPSrbqGza+uE7uNNMK7iqqv5s8kAoWj
Yalg+ld6Q6D3ZHP2WxX/gTy25xzmssa6kMYqqMxRuCy3WArYtlloKJjeCAUw1DNq
5+VTjwZuF3BM4fB+Xj7MCmzjztg/zpVJi+VMvQ0dxCPTdN7+aZfCZ8iOaAWWJBCN
y5iAXV1C7aSZvNmnW9W1/EvZk2Pnuc/reVClisZe0XwWlB8R/s+fJM768CjofQs+
nslq1bhI1szX6cO+HHtH8KMWpiMeHsf12nC7SOihs6u8myP+lnGtSBo0GIScjGdU
KVcCAwEAAaOCAYkwggGFMB8GA1UdIwQYMBaAFLxyHz3mtVy9uS6YXv1T9/HqF3CW
MB0GA1UdDgQWBBQbdXsgteaFyflftkdU2lIxMZBJmDAOBgNVHQ8BAf8EBAMCBaAw
HQYDVR0lBBYwFAYIKwYBBQUHAwEGCCsGAQUFBwMCME8GA1UdHwRIMEYwIaAfoB2G
G2h0dHA6Ly9teWhvc3QuY29tL215Y2ExLmNybDAhoB+gHYYbaHR0cDovL215aG9z
dC5jb20vbXljYTIuY3JsMEYGA1UdIAQ/MD0wMQYJYIZIAYb9bAEBMCQwIgYIKwYB
BQUHAgEWFmh0dHBzOi8vbXlob3N0LmNvbS9DUFMwCAYGZ4EMAQICMFIGCCsGAQUF
BwEBBEYwRDAgBggrBgEFBQcwAYYUaHR0cDovL29jc3AubXkuaG9zdC8wIAYIKwYB
BQUHMAKGFGh0dHA6Ly9teS5jYS9jYS5odG1sMAwGA1UdEwEB/wQCMAAwGQYDVR0R
BBIwEIIOZ2VuZXJpY19jbGllbnQwDQYJKoZIhvcNAQELBQADggEBAHSYnV7GSu49
+2Prcb5DjqkE+asxgzISv22AnLGvQY/ZVQqH+cuiLSR1FXXXbP+omgM7AvSqduAz
9gQyGRcIWN7yI/+gFbS7eCtXYXeGqvIZjXVXE49GHAy/DRas+P8n3zmtQg+mlT6+
Lhs/B474Smm3s/Z5vusWezhkGNtH23vZh03zNKqMDXXs07iI5nT4/GQ3GB86uLMG
PGhrj3iZFPQHnrFu8cqbV9q33S29pTV0mppkR7gh5aiWiZoE02zYDxkfHaKB2x27
JzbPxJEPvF+UhGcipP38ebD9I1K2+aEuf2TDDAgsO1UG1tuzS9KcP8JfbxR1Xaa2
sRB1j1EouTQ=
-----END CERTIFICATE-----
