Certificate:
    Data:
        Version: 3 (0x2)
        Serial Number:
            06:af:db:e4:42:db:b5:f0:0e:a3:37:1a:6e:c8:1a:c9
    Signature Algorithm: sha256WithRSAEncryption
        Issuer: C=US, ST=CA, O=Aerospike, Inc., OU=Engineering Test, CN=Chain Signing Cert
        Validity
            Not Before: Nov  5 20:06:00 2020 GMT
            Not After : Nov  4 20:06:00 2024 GMT
        Subject: C=US, ST=CA, O=Aerospike, Inc., OU=Test Client, CN=generic_client
        Subject Public Key Info:
            Public Key Algorithm: rsaEncryption
                Public-Key: (2048 bit)
                Modulus:
                    00:db:51:85:e4:67:05:8a:72:15:f2:b7:b7:64:da:
                    64:69:67:85:54:ef:39:1b:fd:a3:7a:ad:33:b2:60:
                    d4:ec:e0:ac:ba:8f:96:79:9b:7a:03:d2:ad:ba:86:
                    cd:af:ae:13:bb:8d:34:c2:bb:8a:aa:af:e6:cf:24:
                    02:85:a3:61:a9:60:fa:57:7a:43:a0:f7:64:73:f6:
                    5b:15:ff:81:3c:b6:e7:1c:e6:b2:c6:ba:90:c6:2a:
                    a8:cc:51:b8:2c:b7:58:0a:d8:b6:59:68:28:98:de:
                    08:05:30:d4:33:6a:e7:e5:53:8f:06:6e:17:70:4c:
                    e1:f0:7e:5e:3e:cc:0a:6c:e3:ce:d8:3f:ce:95:49:
                    8b:e5:4c:bd:0d:1d:c4:23:d3:74:de:fe:69:97:c2:
                    67:c8:8e:68:05:96:24:10:8d:cb:98:80:5d:5d:42:
                    ed:a4:99:bc:d9:a7:5b:d5:b5:fc:4b:d9:93:63:e7:
                    b9:cf:eb:79:50:a5:8a:c6:5e:d1:7c:16:94:1f:11:
                    fe:cf:9f:24:ce:fa:f0:28:e8:7d:0b:3e:9e:c9:6a:
                    d5:b8:48:d6:cc:d7:e9:c3:be:1c:7b:47:f0:a3:16:
                    a6:23:1e:1e:c7:f5:da:70:bb:48:e8:a1:b3:ab:bc:
                    9b:23:fe:96:71:ad:48:1a:34:18:84:9c:8c:67:54:
                    29:57
                Exponent: 65537 (0x10001)
        X509v3 extensions:
            X509v3 Authority Key Identifier: 
                keyid:BC:72:1F:3D:E6:B5:5C:BD:B9:2E:98:5E:FD:53:F7:F1:EA:17:70:96

            X509v3 Subject Key Identifier: 
                1B:75:7B:20:B5:E6:85:C9:F9:5F:B6:47:54:DA:52:31:31:90:49:98
            X509v3 Key Usage: critical
                Digital Signature, Key Encipherment
            X509v3 Extended Key Usage: 
                TLS Web Server Authentication, TLS Web Client Authentication
            X509v3 CRL Distribution Points: 

                Full Name:
                  URI:http://myhost.com/myca1.crl

                Full Name:
                  URI:http://myhost.com/myca2.crl

            X509v3 Certificate Policies: 
                Policy: 2.16.840.1.114412.1.1
                  CPS: https://myhost.com/CPS
                Policy: 2.23.140.1.2.2

            Authority Information Access: 
                OCSP - URI:http://ocsp.my.host/
                CA Issuers - URI:http://my.ca/ca.html

            X509v3 Basic Constraints: critical
                CA:FALSE
            X509v3 Subject Alternative Name: 
                DNS:generic_client
    Signature Algorithm: sha256WithRSAEncryption
         74:98:9d:5e:c6:4a:ee:3d:fb:63:eb:71:be:43:8e:a9:04:f9:
         ab:31:83:32:12:bf:6d:80:9c:b1:af:41:8f:d9:55:0a:87:f9:
         cb:a2:2d:24:75:15:75:d7:6c:ff:a8:9a:03:3b:02:f4:aa:76:
         e0:33:f6:04:32:19:17:08:58:de:f2:23:ff:a0:15:b4:bb:78:
         2b:57:61:77:86:aa:f2:19:8d:75:57:13:8f:46:1c:0c:bf:0d:
         16:ac:f8:ff:27:df:39:ad:42:0f:a6:95:3e:be:2e:1b:3f:07:
         8e:f8:4a:69:b7:b3:f6:79:be:eb:16:7b:38:64:18:db:47:db:
         7b:d9:87:4d:f3:34:aa:8c:0d:75:ec:d3:b8:88:e6:74:f8:fc:
         64:37:18:1f:3a:b8:b3:06:3c:68:6b:8f:78:99:14:f4:07:9e:
         b1:6e:f1:ca:9b:57:da:b7:dd:2d:bd:a5:35:74:9a:9a:64:47:
         b8:21:e5:a8:96:89:9a:04:d3:6c:d8:0f:19:1f:1d:a2:81:db:
         1d:bb:27:36:cf:c4:91:0f:bc:5f:94:84:67:22:a4:fd:fc:79:
         b0:fd:23:52:b6:f9:a1:2e:7f:64:c3:0c:08:2c:3b:55:06:d6:
         db:b3:4b:d2:9c:3f:c2:5f:6f:14:75:5d:a6:b6:b1:10:75:8f:
         51:28:b9:34
-----BEGIN CERTIFICATE-----
MIIE5DCCA8ygAwIBAgIQBq/b5ELbtfAOozcabsgayTANBgkqhkiG9w0BAQsFADBs
MQswCQYDVQQGEwJVUzELMAkGA1UECAwCQ0ExGDAWBgNVBAoMD0Flcm9zcGlrZSwg
SW5jLjEZMBcGA1UECwwQRW5naW5lZXJpbmcgVGVzdDEbMBkGA1UEAwwSQ2hhaW4g
U2lnbmluZyBDZXJ0MB4XDTIwMTEwNTIwMDYwMFoXDTI0MTEwNDIwMDYwMFowYzEL
MAkGA1UEBhMCVVMxCzAJBgNVBAgMAkNBMRgwFgYDVQQKDA9BZXJvc3Bpa2UsIElu
Yy4xFDASBgNVBAsMC1Rlc3QgQ2xpZW50MRcwFQYDVQQDDA5nZW5lcmljX2NsaWVu
dDCCASIwDQYJKoZIhvcNAQEBBQADggEPADCCAQoCggEBANtRheRnBYpyFfK3t2Ta
ZGlnhVTvORv9o3qtM7Jg1OzgrLqPlnmbegPSrbqGza+uE7uNNMK7iqqv5s8kAoWj
Yalg+ld6Q6D3ZHP2WxX/gTy25xzmssa6kMYqqMxRuCy3WArYtlloKJjeCAUw1DNq
5+VTjwZuF3BM4fB+Xj7MCmzjztg/zpVJi+VMvQ0dxCPTdN7+aZfCZ8iOaAWWJBCN
y5iAXV1C7aSZvNmnW9W1/EvZk2Pnuc/reVClisZe0XwWlB8R/s+fJM768CjofQs+
nslq1bhI1szX6cO+HHtH8KMWpiMeHsf12nC7SOihs6u8myP+lnGtSBo0GIScjGdU
KVcCAwEAAaOCAYkwggGFMB8GA1UdIwQYMBaAFLxyHz3mtVy9uS6YXv1T9/HqF3CW
MB0GA1UdDgQWBBQbdXsgteaFyflftkdU2lIxMZBJmDAOBgNVHQ8BAf8EBAMCBaAw
HQYDVR0lBBYwFAYIKwYBBQUHAwEGCCsGAQUFBwMCME8GA1UdHwRIMEYwIaAfoB2G
G2h0dHA6Ly9teWhvc3QuY29tL215Y2ExLmNybDAhoB+gHYYbaHR0cDovL215aG9z
dC5jb20vbXljYTIuY3JsMEYGA1UdIAQ/MD0wMQYJYIZIAYb9bAEBMCQwIgYIKwYB
BQUHAgEWFmh0dHBzOi8vbXlob3N0LmNvbS9DUFMwCAYGZ4EMAQICMFIGCCsGAQUF
BwEBBEYwRDAgBggrBgEFBQcwAYYUaHR0cDovL29jc3AubXkuaG9zdC8wIAYIKwYB
BQUHMAKGFGh0dHA6Ly9teS5jYS9jYS5odG1sMAwGA1UdEwEB/wQCMAAwGQYDVR0R
BBIwEIIOZ2VuZXJpY19jbGllbnQwDQYJKoZIhvcNAQELBQADggEBAHSYnV7GSu49
+2Prcb5DjqkE+asxgzISv22AnLGvQY/ZVQqH+cuiLSR1FXXXbP+omgM7AvSqduAz
9gQyGRcIWN7yI/+gFbS7eCtXYXeGqvIZjXVXE49GHAy/DRas+P8n3zmtQg+mlT6+
Lhs/B474Smm3s/Z5vusWezhkGNtH23vZh03zNKqMDXXs07iI5nT4/GQ3GB86uLMG
PGhrj3iZFPQHnrFu8cqbV9q33S29pTV0mppkR7gh5aiWiZoE02zYDxkfHaKB2x27
JzbPxJEPvF+UhGcipP38ebD9I1K2+aEuf2TDDAgsO1UG1tuzS9KcP8JfbxR1Xaa2
sRB1j1EouTQ=
-----END CERTIFICATE-----
Certificate:
    Data:
        Version: 3 (0x2)
        Serial Number:
            74:1c:15:a7:eb:cf:32:43:a9:06:23:7b:91:27:17:b2
    Signature Algorithm: sha256WithRSAEncryption
        Issuer: C=US, ST=CA, L=Mountain View, O=Aerospike, Inc., OU=Engineering Test, CN=Root CA
        Validity
            Not Before: Nov  5 20:06:00 2020 GMT
            Not After : Nov  4 20:06:00 2024 GMT
        Subject: C=US, ST=CA, O=Aerospike, Inc., OU=Engineering Test, CN=Chain Signing Cert
        Subject Public Key Info:
            Public Key Algorithm: rsaEncryption
                Public-Key: (2048 bit)
                Modulus:
                    00:b4:f0:1a:07:98:ab:c8:43:ea:b6:f5:34:2d:a5:
                    2b:2e:8e:f1:e1:fc:f7:6e:8c:a7:50:b9:fb:55:da:
                    23:44:ff:2d:e0:68:de:a4:f8:74:47:ef:46:01:11:
                    50:22:7e:bd:d7:38:ba:31:e6:d5:72:78:1e:45:47:
                    49:1b:27:7a:10:1b:f9:34:75:01:44:55:37:be:c8:
                    e7:b4:9f:01:68:f3:e6:4f:35:a5:38:9e:87:8f:1f:
                    53:ea:0b:0b:1d:63:d9:45:1f:4d:be:36:90:ac:b4:
                    af:c7:4d:39:ab:5b:42:e5:81:d7:c8:95:e3:76:7a:
                    fd:86:c4:26:13:2b:27:27:1d:e9:ee:cd:6c:cc:41:
                    47:b1:a5:4e:fb:4d:30:bb:ba:68:1a:3c:e8:71:94:
                    f1:ae:3f:8c:5e:be:72:72:97:3e:e5:f0:1b:d0:f7:
                    5c:14:14:54:3d:2d:3c:0d:75:7f:3d:54:b0:a8:f0:
                    3e:68:c5:b8:5d:35:71:c0:b5:66:88:6a:9e:af:14:
                    34:1f:2f:4d:c6:f2:73:3a:d8:47:9e:b6:d7:b1:54:
                    74:b9:21:1f:62:18:10:ad:09:19:51:65:5b:4f:b2:
                    1a:54:5c:86:c4:42:45:97:d5:2f:2e:54:71:cc:52:
                    76:af:dd:e2:21:a0:ee:9a:4d:2b:79:47:8a:47:30:
                    7f:c7
                Exponent: 65537 (0x10001)
        X509v3 extensions:
            X509v3 Basic Constraints: critical
                CA:TRUE, pathlen:0
            X509v3 Key Usage: critical
                Digital Signature, Key Encipherment, Certificate Sign, CRL Sign
            X509v3 Extended Key Usage: 
                TLS Web Server Authentication, TLS Web Client Authentication
            Authority Information Access: 
                OCSP - URI:http://ocsp.my.host/

            X509v3 CRL Distribution Points: 

                Full Name:
                  URI:http://myhost.com/myca.crl

            X509v3 Certificate Policies: 
                Policy: X509v3 Any Policy
                  CPS: https://myhost.com/CPS

            X509v3 Subject Key Identifier: 
                BC:72:1F:3D:E6:B5:5C:BD:B9:2E:98:5E:FD:53:F7:F1:EA:17:70:96
            X509v3 Authority Key Identifier: 
                keyid:CB:DD:69:7B:6D:3D:C7:6F:36:C0:EB:AF:4C:26:4D:3E:E0:97:53:61

    Signature Algorithm: sha256WithRSAEncryption
         01:c9:f8:3e:bd:55:a0:3b:39:81:5e:c3:81:59:c0:40:31:6e:
         a9:db:47:0e:76:84:63:21:84:67:f8:b2:fc:77:2d:0f:9b:b7:
         a5:9d:e4:3e:c9:8b:a3:30:a8:34:81:d4:48:0a:b4:a7:19:42:
         a9:5a:35:94:32:c3:a7:7a:d7:50:6c:6d:c8:d2:7f:3e:0c:54:
         1e:c0:06:7c:2c:c6:82:f4:1e:5b:9f:42:de:4b:cb:38:59:4c:
         17:0a:a0:d0:db:5d:2c:58:a9:63:cc:c0:6c:17:a8:a4:8b:f7:
         6c:3f:11:ca:2b:2d:db:5b:03:ad:fd:23:5c:ae:30:26:96:b6:
         8f:04:b9:51:89:29:22:4e:91:82:ef:20:26:8c:ff:02:54:64:
         31:01:ce:81:01:8c:ab:34:05:b3:4a:38:97:56:29:74:a1:ea:
         57:25:d4:9c:f5:27:97:bc:80:9a:c5:df:f9:c0:53:4d:34:75:
         df:e5:23:7f:16:11:70:83:99:9b:b4:3e:d7:13:f1:78:b7:37:
         bd:2e:66:a4:53:d9:c7:7c:93:a9:c9:fc:49:0a:e2:4f:3f:9d:
         50:d9:21:33:52:e6:e5:60:a5:ca:3f:d9:75:0e:55:0a:3e:0f:
         7a:4a:e6:e4:8a:fe:a9:0d:f2:0d:a1:bf:ad:a6:b8:4d:6c:34:
         36:fc:2c:b6
-----BEGIN CERTIFICATE-----
MIIEkDCCA3igAwIBAgIQdBwVp+vPMkOpBiN7kScXsjANBgkqhkiG9w0BAQsFADB5
MQswCQYDVQQGEwJVUzELMAkGA1UECAwCQ0ExFjAUBgNVBAcMDU1vdW50YWluIFZp
ZXcxGDAWBgNVBAoMD0Flcm9zcGlrZSwgSW5jLjEZMBcGA1UECwwQRW5naW5lZXJp
bmcgVGVzdDEQMA4GA1UEAwwHUm9vdCBDQTAeFw0yMDExMDUyMDA2MDBaFw0yNDEx
MDQyMDA2MDBaMGwxCzAJBgNVBAYTAlVTMQswCQYDVQQIDAJDQTEYMBYGA1UECgwP
QWVyb3NwaWtlLCBJbmMuMRkwFwYDVQQLDBBFbmdpbmVlcmluZyBUZXN0MRswGQYD
VQQDDBJDaGFpbiBTaWduaW5nIENlcnQwggEiMA0GCSqGSIb3DQEBAQUAA4IBDwAw
ggEKAoIBAQC08BoHmKvIQ+q29TQtpSsujvHh/PdujKdQuftV2iNE/y3gaN6k+HRH
70YBEVAifr3XOLox5tVyeB5FR0kbJ3oQG/k0dQFEVTe+yOe0nwFo8+ZPNaU4noeP
H1PqCwsdY9lFH02+NpCstK/HTTmrW0LlgdfIleN2ev2GxCYTKycnHenuzWzMQUex
pU77TTC7umgaPOhxlPGuP4xevnJylz7l8BvQ91wUFFQ9LTwNdX89VLCo8D5oxbhd
NXHAtWaIap6vFDQfL03G8nM62EeettexVHS5IR9iGBCtCRlRZVtPshpUXIbEQkWX
1S8uVHHMUnav3eIhoO6aTSt5R4pHMH/HAgMBAAGjggEfMIIBGzASBgNVHRMBAf8E
CDAGAQH/AgEAMA4GA1UdDwEB/wQEAwIBpjAdBgNVHSUEFjAUBggrBgEFBQcDAQYI
KwYBBQUHAwIwMAYIKwYBBQUHAQEEJDAiMCAGCCsGAQUFBzABhhRodHRwOi8vb2Nz
cC5teS5ob3N0LzArBgNVHR8EJDAiMCCgHqAchhpodHRwOi8vbXlob3N0LmNvbS9t
eWNhLmNybDA3BgNVHSAEMDAuMCwGBFUdIAAwJDAiBggrBgEFBQcCARYWaHR0cHM6
Ly9teWhvc3QuY29tL0NQUzAdBgNVHQ4EFgQUvHIfPea1XL25Lphe/VP38eoXcJYw
HwYDVR0jBBgwFoAUy91pe209x282wOuvTCZNPuCXU2EwDQYJKoZIhvcNAQELBQAD
ggEBAAHJ+D69VaA7OYFew4FZwEAxbqnbRw52hGMhhGf4svx3LQ+bt6Wd5D7Ji6Mw
qDSB1EgKtKcZQqlaNZQyw6d611BsbcjSfz4MVB7ABnwsxoL0HlufQt5LyzhZTBcK
oNDbXSxYqWPMwGwXqKSL92w/EcorLdtbA639I1yuMCaWto8EuVGJKSJOkYLvICaM
/wJUZDEBzoEBjKs0BbNKOJdWKXSh6lcl1Jz1J5e8gJrF3/nAU000dd/lI38WEXCD
mZu0PtcT8Xi3N70uZqRT2cd8k6nJ/EkK4k8/nVDZITNS5uVgpco/2XUOVQo+D3pK
5uSK/qkN8g2hv62muE1sNDb8LLY=
-----END CERTIFICATE-----
