Certificate:
    Data:
        Version: 3 (0x2)
        Serial Number:
            25:84:6c:c8:42:c4:28:11:d1:a9:50:f1:63:90:ac:12
    Signature Algorithm: sha256WithRSAEncryption
        Issuer: C=US, ST=CA, L=Mountain View, O=Aerospike, Inc., OU=Engineering Test, CN=Root CA
        Validity
            Not Before: Nov  5 20:06:00 2020 GMT
            Not After : Nov  4 20:06:00 2024 GMT
        Subject: C=US, ST=CA, O=Aerospike, Inc., OU=Chainless Test Server, CN=generic_client
        Subject Public Key Info:
            Public Key Algorithm: rsaEncryption
                Public-Key: (2048 bit)
                Modulus:
                    00:b5:d6:13:75:77:2d:78:54:2c:2c:3e:92:4c:97:
                    b5:78:38:de:71:d8:ea:80:4d:9e:30:bc:c1:9e:71:
                    d3:91:27:a7:c2:aa:6d:d0:34:68:49:5d:02:6b:76:
                    b5:7f:dc:7d:83:aa:9f:97:91:42:2c:49:a4:72:a4:
                    c2:09:5f:2b:c9:4c:a9:69:5b:df:a2:61:90:85:d7:
                    77:fd:9a:ec:02:c5:f8:39:90:5a:a4:62:52:15:02:
                    b4:4d:a1:32:98:e5:61:7f:cd:20:f4:9a:d1:8b:60:
                    54:e3:80:5d:6f:22:32:5a:e6:2b:90:c2:5c:65:5d:
                    1f:aa:c5:17:e2:20:e1:07:6c:00:5e:a3:55:94:fb:
                    f3:60:1f:97:19:42:bc:79:d0:27:e6:67:da:38:67:
                    49:0c:0d:57:f1:d0:5b:4a:05:24:ac:d1:2d:13:f7:
                    06:ca:37:da:30:aa:e6:12:cc:9f:d3:d5:e2:08:85:
                    90:c7:3d:f7:35:6f:c9:16:df:93:5d:af:5c:65:a7:
                    27:1c:37:b2:0a:2c:67:8d:6e:1b:08:b1:34:aa:10:
                    4d:e4:80:71:ac:e2:72:d8:00:84:e8:c1:b6:1f:ce:
                    d4:45:ca:55:9f:0d:b2:fb:f7:cd:60:7f:02:45:45:
                    dc:6d:de:b7:bb:94:33:bb:a6:fe:b8:5a:1d:75:9b:
                    95:51
                Exponent: 65537 (0x10001)
        X509v3 extensions:
            X509v3 Basic Constraints: critical
                CA:TRUE, pathlen:0
            X509v3 Key Usage: critical
                Digital Signature, Key Encipherment, Certificate Sign, CRL Sign
            X509v3 Extended Key Usage: 
                TLS Web Server Authentication, TLS Web Client Authentication
            Authority Information Access: 
                OCSP - URI:http://ocsp.my.host/

            X509v3 CRL Distribution Points: 

                Full Name:
                  URI:http://myhost.com/myca.crl

            X509v3 Certificate Policies: 
                Policy: X509v3 Any Policy
                  CPS: https://myhost.com/CPS

            X509v3 Subject Key Identifier: 
                B1:31:EB:4D:2E:E2:BF:F4:D4:7B:F3:94:ED:F8:B8:AD:B3:AB:E8:C3
            X509v3 Authority Key Identifier: 
                keyid:CB:DD:69:7B:6D:3D:C7:6F:36:C0:EB:AF:4C:26:4D:3E:E0:97:53:61

    Signature Algorithm: sha256WithRSAEncryption
         09:7a:9b:9c:56:b5:ce:3e:00:83:0e:1b:1a:b6:fb:4c:dd:27:
         22:67:e1:f8:20:ab:d2:5c:e7:cb:b3:70:ef:29:ab:74:b6:93:
         74:4d:84:de:68:a0:85:3e:46:b6:41:22:3c:6a:d1:03:51:76:
         74:4b:6c:24:4a:6c:8a:88:f2:11:75:0b:f5:80:01:12:bd:25:
         2d:63:e0:78:dc:8c:89:ff:a4:65:01:02:37:7b:bc:b9:83:a6:
         59:a7:d7:6c:34:5e:22:69:72:73:16:28:fd:ad:12:e8:68:0b:
         e1:e6:bf:de:77:32:8e:e7:a3:2b:76:5a:cc:1c:70:70:75:ce:
         c6:f9:d8:e2:37:a3:56:d2:6e:30:3c:8e:bf:4e:5e:0a:83:7e:
         f8:80:95:03:d8:f6:b4:f8:ee:d5:55:60:3b:0c:8d:03:78:ae:
         a0:c2:f3:f6:f0:76:56:9e:70:c1:a8:42:31:56:0e:b4:ef:50:
         29:69:f7:3b:ae:91:56:e6:2f:3f:d8:27:13:d8:8b:86:e6:9d:
         09:2a:c1:f3:dc:3c:6d:d6:f8:30:5b:6b:40:d4:26:a8:3b:3b:
         b1:16:2b:36:b8:88:98:da:5b:96:41:fe:94:c5:00:25:71:7f:
         9d:2e:08:04:53:f4:87:d7:32:3f:0a:11:57:69:c5:c6:16:5c:
         a7:22:b2:ed
-----BEGIN CERTIFICATE-----
MIIEkTCCA3mgAwIBAgIQJYRsyELEKBHRqVDxY5CsEjANBgkqhkiG9w0BAQsFADB5
MQswCQYDVQQGEwJVUzELMAkGA1UECAwCQ0ExFjAUBgNVBAcMDU1vdW50YWluIFZp
ZXcxGDAWBgNVBAoMD0Flcm9zcGlrZSwgSW5jLjEZMBcGA1UECwwQRW5naW5lZXJp
bmcgVGVzdDEQMA4GA1UEAwwHUm9vdCBDQTAeFw0yMDExMDUyMDA2MDBaFw0yNDEx
MDQyMDA2MDBaMG0xCzAJBgNVBAYTAlVTMQswCQYDVQQIDAJDQTEYMBYGA1UECgwP
QWVyb3NwaWtlLCBJbmMuMR4wHAYDVQQLDBVDaGFpbmxlc3MgVGVzdCBTZXJ2ZXIx
FzAVBgNVBAMMDmdlbmVyaWNfY2xpZW50MIIBIjANBgkqhkiG9w0BAQEFAAOCAQ8A
MIIBCgKCAQEAtdYTdXcteFQsLD6STJe1eDjecdjqgE2eMLzBnnHTkSenwqpt0DRo
SV0Ca3a1f9x9g6qfl5FCLEmkcqTCCV8ryUypaVvfomGQhdd3/ZrsAsX4OZBapGJS
FQK0TaEymOVhf80g9JrRi2BU44BdbyIyWuYrkMJcZV0fqsUX4iDhB2wAXqNVlPvz
YB+XGUK8edAn5mfaOGdJDA1X8dBbSgUkrNEtE/cGyjfaMKrmEsyf09XiCIWQxz33
NW/JFt+TXa9cZacnHDeyCixnjW4bCLE0qhBN5IBxrOJy2ACE6MG2H87URcpVnw2y
+/fNYH8CRUXcbd63u5Qzu6b+uFoddZuVUQIDAQABo4IBHzCCARswEgYDVR0TAQH/
BAgwBgEB/wIBADAOBgNVHQ8BAf8EBAMCAaYwHQYDVR0lBBYwFAYIKwYBBQUHAwEG
CCsGAQUFBwMCMDAGCCsGAQUFBwEBBCQwIjAgBggrBgEFBQcwAYYUaHR0cDovL29j
c3AubXkuaG9zdC8wKwYDVR0fBCQwIjAgoB6gHIYaaHR0cDovL215aG9zdC5jb20v
bXljYS5jcmwwNwYDVR0gBDAwLjAsBgRVHSAAMCQwIgYIKwYBBQUHAgEWFmh0dHBz
Oi8vbXlob3N0LmNvbS9DUFMwHQYDVR0OBBYEFLEx600u4r/01HvzlO34uK2zq+jD
MB8GA1UdIwQYMBaAFMvdaXttPcdvNsDrr0wmTT7gl1NhMA0GCSqGSIb3DQEBCwUA
A4IBAQAJepucVrXOPgCDDhsatvtM3SciZ+H4IKvSXOfLs3DvKat0tpN0TYTeaKCF
Pka2QSI8atEDUXZ0S2wkSmyKiPIRdQv1gAESvSUtY+B43IyJ/6RlAQI3e7y5g6ZZ
p9dsNF4iaXJzFij9rRLoaAvh5r/edzKO56MrdlrMHHBwdc7G+djiN6NW0m4wPI6/
Tl4Kg374gJUD2Pa0+O7VVWA7DI0DeK6gwvP28HZWnnDBqEIxVg6071Apafc7rpFW
5i8/2CcT2IuG5p0JKsHz3Dxt1vgwW2tA1CaoOzuxFis2uIiY2luWQf6UxQAlcX+d
LggEU/SH1zI/ChFXacXGFlynIrLt
-----END CERTIFICATE-----
