Certificate:
    Data:
        Version: 3 (0x2)
        Serial Number:
            f5:b1:e1:e9:0d:3b:23:35:75:34:35:de:d7:3b:b4:3a
    Signature Algorithm: sha256WithRSAEncryption
        Issuer: C=US, ST=CA, O=Aerospike, Inc., OU=Engineering Test, CN=Chain Signing Cert
        Validity
            Not Before: Nov  5 20:06:02 2020 GMT
            Not After : Nov  4 20:06:02 2024 GMT
        Subject: C=US, ST=CA, O=Aerospike, Inc., OU=Test MultiServer, CN=aerospike-d-0.test-runner
        Subject Public Key Info:
            Public Key Algorithm: rsaEncryption
                Public-Key: (2048 bit)
                Modulus:
                    00:a1:5b:c8:34:a6:24:fb:8b:d6:bf:8b:3f:0b:e1:
                    2e:fd:8c:d6:91:cb:f4:92:25:ab:b4:18:d7:3e:4a:
                    fa:cd:19:44:4d:0a:b6:e3:e0:4e:6d:a3:ec:ef:c0:
                    0e:be:b2:1b:70:55:7f:5f:60:85:45:e8:e6:10:ef:
                    77:b4:b6:24:22:9f:0f:88:04:fc:94:f0:b4:c5:28:
                    13:3f:5f:26:2c:08:0b:07:ea:6c:db:24:b0:8c:53:
                    33:c3:98:a5:07:95:aa:c7:be:38:16:bc:55:25:11:
                    3d:3c:db:a3:08:79:d4:14:42:28:4e:2c:63:a6:7f:
                    5d:71:5a:7b:50:e0:da:6e:81:46:0b:ea:f6:bd:c7:
                    c9:e8:3f:9c:50:8b:34:ca:0c:61:2b:1c:37:da:fd:
                    db:ca:f2:e2:86:a8:15:e1:ba:47:af:4f:d5:62:30:
                    84:4a:44:06:98:c6:57:4e:a4:e8:6b:88:47:b6:f8:
                    d1:63:7f:8a:94:08:34:e1:48:df:cc:74:84:f0:49:
                    59:ce:4e:8c:d3:05:b7:bb:07:b5:6d:56:05:7f:66:
                    92:fb:9f:98:5e:f0:be:95:ad:62:38:cc:a3:e4:6f:
                    32:22:4d:0d:66:75:2e:f7:67:00:ff:dc:2e:d9:e0:
                    d3:75:dc:e4:d9:c0:2a:86:56:8a:e7:40:0a:56:da:
                    12:25
                Exponent: 65537 (0x10001)
        X509v3 extensions:
            X509v3 Authority Key Identifier: 
                keyid:BC:72:1F:3D:E6:B5:5C:BD:B9:2E:98:5E:FD:53:F7:F1:EA:17:70:96

            X509v3 Subject Key Identifier: 
                D8:2F:B5:E5:97:01:0D:07:87:77:48:DB:F7:2B:AD:C4:85:46:DE:B8
            X509v3 Key Usage: critical
                Digital Signature, Key Encipherment
            X509v3 Extended Key Usage: 
                TLS Web Server Authentication, TLS Web Client Authentication
            X509v3 CRL Distribution Points: 

                Full Name:
                  URI:http://myhost.com/myca1.crl

                Full Name:
                  URI:http://myhost.com/myca2.crl

            X509v3 Certificate Policies: 
                Policy: 2.16.840.1.114412.1.1
                  CPS: https://myhost.com/CPS
                Policy: 2.23.140.1.2.2

            Authority Information Access: 
                OCSP - URI:http://ocsp.my.host/
                CA Issuers - URI:http://my.ca/ca.html

            X509v3 Basic Constraints: critical
                CA:FALSE
            X509v3 Subject Alternative Name: 
                DNS:aerospike-d-0.test-runner, DNS:aerospike-d-1.test-runner, DNS:aerospike-d-2.test-runner, DNS:aerospike-d-3.test-runner, DNS:aerospike-d-4.test-runner, DNS:aerospike-d-5.test-runner
    Signature Algorithm: sha256WithRSAEncryption
         9d:e8:37:c7:5c:8b:db:0c:65:c4:45:af:f2:61:e3:c8:fe:71:
         78:06:50:52:16:26:2f:0b:5c:4c:fa:13:82:41:e8:aa:00:c8:
         45:22:e9:ee:7b:03:d7:61:16:35:20:0f:13:a2:ca:89:f3:e7:
         0e:c1:82:e0:34:98:a3:4c:82:a3:35:22:ef:fe:b5:b5:d2:d4:
         d0:5d:1e:0b:da:60:38:98:77:42:50:99:0b:90:82:f1:5b:b9:
         50:93:1c:48:da:bf:43:a6:2f:49:e1:62:09:12:55:34:73:54:
         15:ee:e2:5a:9d:15:1d:33:a3:97:8e:59:9a:b2:89:60:a6:63:
         ac:ff:24:86:3d:7e:8b:31:45:9d:a0:89:c5:45:fb:94:29:42:
         b1:74:d3:75:61:4c:8a:f9:7c:d3:5b:2a:f9:f9:45:af:6d:9d:
         61:5c:a7:96:95:2d:92:9d:1b:f9:ff:e8:ba:7e:df:13:81:e0:
         db:fd:56:9f:19:4d:f2:0b:f0:3c:a5:fb:54:54:ae:6f:8f:65:
         a2:b4:42:48:6c:c2:1b:01:e5:a6:56:3a:87:31:c5:e2:c3:c3:
         ad:3d:5a:55:b2:4c:9c:cb:24:97:c9:ad:09:0f:11:f5:bd:5b:
         06:42:f9:ee:56:70:bc:e3:b7:46:8a:6a:27:20:6b:a1:7c:ad:
         84:45:2e:cc
-----BEGIN CERTIFICATE-----
MIIFijCCBHKgAwIBAgIRAPWx4ekNOyM1dTQ13tc7tDowDQYJKoZIhvcNAQELBQAw
bDELMAkGA1UEBhMCVVMxCzAJBgNVBAgMAkNBMRgwFgYDVQQKDA9BZXJvc3Bpa2Us
IEluYy4xGTAXBgNVBAsMEEVuZ2luZWVyaW5nIFRlc3QxGzAZBgNVBAMMEkNoYWlu
IFNpZ25pbmcgQ2VydDAeFw0yMDExMDUyMDA2MDJaFw0yNDExMDQyMDA2MDJaMHMx
CzAJBgNVBAYTAlVTMQswCQYDVQQIDAJDQTEYMBYGA1UECgwPQWVyb3NwaWtlLCBJ
bmMuMRkwFwYDVQQLDBBUZXN0IE11bHRpU2VydmVyMSIwIAYDVQQDDBlhZXJvc3Bp
a2UtZC0wLnRlc3QtcnVubmVyMIIBIjANBgkqhkiG9w0BAQEFAAOCAQ8AMIIBCgKC
AQEAoVvINKYk+4vWv4s/C+Eu/YzWkcv0kiWrtBjXPkr6zRlETQq24+BObaPs78AO
vrIbcFV/X2CFRejmEO93tLYkIp8PiAT8lPC0xSgTP18mLAgLB+ps2ySwjFMzw5il
B5Wqx744FrxVJRE9PNujCHnUFEIoTixjpn9dcVp7UODaboFGC+r2vcfJ6D+cUIs0
ygxhKxw32v3byvLihqgV4bpHr0/VYjCESkQGmMZXTqToa4hHtvjRY3+KlAg04Ujf
zHSE8ElZzk6M0wW3uwe1bVYFf2aS+5+YXvC+la1iOMyj5G8yIk0NZnUu92cA/9wu
2eDTddzk2cAqhlaK50AKVtoSJQIDAQABo4ICHjCCAhowHwYDVR0jBBgwFoAUvHIf
Pea1XL25Lphe/VP38eoXcJYwHQYDVR0OBBYEFNgvteWXAQ0Hh3dI2/crrcSFRt64
MA4GA1UdDwEB/wQEAwIFoDAdBgNVHSUEFjAUBggrBgEFBQcDAQYIKwYBBQUHAwIw
TwYDVR0fBEgwRjAhoB+gHYYbaHR0cDovL215aG9zdC5jb20vbXljYTEuY3JsMCGg
H6AdhhtodHRwOi8vbXlob3N0LmNvbS9teWNhMi5jcmwwRgYDVR0gBD8wPTAxBglg
hkgBhv1sAQEwJDAiBggrBgEFBQcCARYWaHR0cHM6Ly9teWhvc3QuY29tL0NQUzAI
BgZngQwBAgIwUgYIKwYBBQUHAQEERjBEMCAGCCsGAQUFBzABhhRodHRwOi8vb2Nz
cC5teS5ob3N0LzAgBggrBgEFBQcwAoYUaHR0cDovL215LmNhL2NhLmh0bWwwDAYD
VR0TAQH/BAIwADCBrQYDVR0RBIGlMIGighlhZXJvc3Bpa2UtZC0wLnRlc3QtcnVu
bmVyghlhZXJvc3Bpa2UtZC0xLnRlc3QtcnVubmVyghlhZXJvc3Bpa2UtZC0yLnRl
c3QtcnVubmVyghlhZXJvc3Bpa2UtZC0zLnRlc3QtcnVubmVyghlhZXJvc3Bpa2Ut
ZC00LnRlc3QtcnVubmVyghlhZXJvc3Bpa2UtZC01LnRlc3QtcnVubmVyMA0GCSqG
SIb3DQEBCwUAA4IBAQCd6DfHXIvbDGXERa/yYePI/nF4BlBSFiYvC1xM+hOCQeiq
AMhFIunuewPXYRY1IA8TosqJ8+cOwYLgNJijTIKjNSLv/rW10tTQXR4L2mA4mHdC
UJkLkILxW7lQkxxI2r9Dpi9J4WIJElU0c1QV7uJanRUdM6OXjlmasolgpmOs/ySG
PX6LMUWdoInFRfuUKUKxdNN1YUyK+XzTWyr5+UWvbZ1hXKeWlS2SnRv5/+i6ft8T
geDb/VafGU3yC/A8pftUVK5vj2WitEJIbMIbAeWmVjqHMcXiw8OtPVpVskycyySX
ya0JDxH1vVsGQvnuVnC847dGimonIGuhfK2ERS7M
-----END CERTIFICATE-----
Certificate:
    Data:
        Version: 3 (0x2)
        Serial Number:
            74:1c:15:a7:eb:cf:32:43:a9:06:23:7b:91:27:17:b2
    Signature Algorithm: sha256WithRSAEncryption
        Issuer: C=US, ST=CA, L=Mountain View, O=Aerospike, Inc., OU=Engineering Test, CN=Root CA
        Validity
            Not Before: Nov  5 20:06:00 2020 GMT
            Not After : Nov  4 20:06:00 2024 GMT
        Subject: C=US, ST=CA, O=Aerospike, Inc., OU=Engineering Test, CN=Chain Signing Cert
        Subject Public Key Info:
            Public Key Algorithm: rsaEncryption
                Public-Key: (2048 bit)
                Modulus:
                    00:b4:f0:1a:07:98:ab:c8:43:ea:b6:f5:34:2d:a5:
                    2b:2e:8e:f1:e1:fc:f7:6e:8c:a7:50:b9:fb:55:da:
                    23:44:ff:2d:e0:68:de:a4:f8:74:47:ef:46:01:11:
                    50:22:7e:bd:d7:38:ba:31:e6:d5:72:78:1e:45:47:
                    49:1b:27:7a:10:1b:f9:34:75:01:44:55:37:be:c8:
                    e7:b4:9f:01:68:f3:e6:4f:35:a5:38:9e:87:8f:1f:
                    53:ea:0b:0b:1d:63:d9:45:1f:4d:be:36:90:ac:b4:
                    af:c7:4d:39:ab:5b:42:e5:81:d7:c8:95:e3:76:7a:
                    fd:86:c4:26:13:2b:27:27:1d:e9:ee:cd:6c:cc:41:
                    47:b1:a5:4e:fb:4d:30:bb:ba:68:1a:3c:e8:71:94:
                    f1:ae:3f:8c:5e:be:72:72:97:3e:e5:f0:1b:d0:f7:
                    5c:14:14:54:3d:2d:3c:0d:75:7f:3d:54:b0:a8:f0:
                    3e:68:c5:b8:5d:35:71:c0:b5:66:88:6a:9e:af:14:
                    34:1f:2f:4d:c6:f2:73:3a:d8:47:9e:b6:d7:b1:54:
                    74:b9:21:1f:62:18:10:ad:09:19:51:65:5b:4f:b2:
                    1a:54:5c:86:c4:42:45:97:d5:2f:2e:54:71:cc:52:
                    76:af:dd:e2:21:a0:ee:9a:4d:2b:79:47:8a:47:30:
                    7f:c7
                Exponent: 65537 (0x10001)
        X509v3 extensions:
            X509v3 Basic Constraints: critical
                CA:TRUE, pathlen:0
            X509v3 Key Usage: critical
                Digital Signature, Key Encipherment, Certificate Sign, CRL Sign
            X509v3 Extended Key Usage: 
                TLS Web Server Authentication, TLS Web Client Authentication
            Authority Information Access: 
                OCSP - URI:http://ocsp.my.host/

            X509v3 CRL Distribution Points: 

                Full Name:
                  URI:http://myhost.com/myca.crl

            X509v3 Certificate Policies: 
                Policy: X509v3 Any Policy
                  CPS: https://myhost.com/CPS

            X509v3 Subject Key Identifier: 
                BC:72:1F:3D:E6:B5:5C:BD:B9:2E:98:5E:FD:53:F7:F1:EA:17:70:96
            X509v3 Authority Key Identifier: 
                keyid:CB:DD:69:7B:6D:3D:C7:6F:36:C0:EB:AF:4C:26:4D:3E:E0:97:53:61

    Signature Algorithm: sha256WithRSAEncryption
         01:c9:f8:3e:bd:55:a0:3b:39:81:5e:c3:81:59:c0:40:31:6e:
         a9:db:47:0e:76:84:63:21:84:67:f8:b2:fc:77:2d:0f:9b:b7:
         a5:9d:e4:3e:c9:8b:a3:30:a8:34:81:d4:48:0a:b4:a7:19:42:
         a9:5a:35:94:32:c3:a7:7a:d7:50:6c:6d:c8:d2:7f:3e:0c:54:
         1e:c0:06:7c:2c:c6:82:f4:1e:5b:9f:42:de:4b:cb:38:59:4c:
         17:0a:a0:d0:db:5d:2c:58:a9:63:cc:c0:6c:17:a8:a4:8b:f7:
         6c:3f:11:ca:2b:2d:db:5b:03:ad:fd:23:5c:ae:30:26:96:b6:
         8f:04:b9:51:89:29:22:4e:91:82:ef:20:26:8c:ff:02:54:64:
         31:01:ce:81:01:8c:ab:34:05:b3:4a:38:97:56:29:74:a1:ea:
         57:25:d4:9c:f5:27:97:bc:80:9a:c5:df:f9:c0:53:4d:34:75:
         df:e5:23:7f:16:11:70:83:99:9b:b4:3e:d7:13:f1:78:b7:37:
         bd:2e:66:a4:53:d9:c7:7c:93:a9:c9:fc:49:0a:e2:4f:3f:9d:
         50:d9:21:33:52:e6:e5:60:a5:ca:3f:d9:75:0e:55:0a:3e:0f:
         7a:4a:e6:e4:8a:fe:a9:0d:f2:0d:a1:bf:ad:a6:b8:4d:6c:34:
         36:fc:2c:b6
-----BEGIN CERTIFICATE-----
MIIEkDCCA3igAwIBAgIQdBwVp+vPMkOpBiN7kScXsjANBgkqhkiG9w0BAQsFADB5
MQswCQYDVQQGEwJVUzELMAkGA1UECAwCQ0ExFjAUBgNVBAcMDU1vdW50YWluIFZp
ZXcxGDAWBgNVBAoMD0Flcm9zcGlrZSwgSW5jLjEZMBcGA1UECwwQRW5naW5lZXJp
bmcgVGVzdDEQMA4GA1UEAwwHUm9vdCBDQTAeFw0yMDExMDUyMDA2MDBaFw0yNDEx
MDQyMDA2MDBaMGwxCzAJBgNVBAYTAlVTMQswCQYDVQQIDAJDQTEYMBYGA1UECgwP
QWVyb3NwaWtlLCBJbmMuMRkwFwYDVQQLDBBFbmdpbmVlcmluZyBUZXN0MRswGQYD
VQQDDBJDaGFpbiBTaWduaW5nIENlcnQwggEiMA0GCSqGSIb3DQEBAQUAA4IBDwAw
ggEKAoIBAQC08BoHmKvIQ+q29TQtpSsujvHh/PdujKdQuftV2iNE/y3gaN6k+HRH
70YBEVAifr3XOLox5tVyeB5FR0kbJ3oQG/k0dQFEVTe+yOe0nwFo8+ZPNaU4noeP
H1PqCwsdY9lFH02+NpCstK/HTTmrW0LlgdfIleN2ev2GxCYTKycnHenuzWzMQUex
pU77TTC7umgaPOhxlPGuP4xevnJylz7l8BvQ91wUFFQ9LTwNdX89VLCo8D5oxbhd
NXHAtWaIap6vFDQfL03G8nM62EeettexVHS5IR9iGBCtCRlRZVtPshpUXIbEQkWX
1S8uVHHMUnav3eIhoO6aTSt5R4pHMH/HAgMBAAGjggEfMIIBGzASBgNVHRMBAf8E
CDAGAQH/AgEAMA4GA1UdDwEB/wQEAwIBpjAdBgNVHSUEFjAUBggrBgEFBQcDAQYI
KwYBBQUHAwIwMAYIKwYBBQUHAQEEJDAiMCAGCCsGAQUFBzABhhRodHRwOi8vb2Nz
cC5teS5ob3N0LzArBgNVHR8EJDAiMCCgHqAchhpodHRwOi8vbXlob3N0LmNvbS9t
eWNhLmNybDA3BgNVHSAEMDAuMCwGBFUdIAAwJDAiBggrBgEFBQcCARYWaHR0cHM6
Ly9teWhvc3QuY29tL0NQUzAdBgNVHQ4EFgQUvHIfPea1XL25Lphe/VP38eoXcJYw
HwYDVR0jBBgwFoAUy91pe209x282wOuvTCZNPuCXU2EwDQYJKoZIhvcNAQELBQAD
ggEBAAHJ+D69VaA7OYFew4FZwEAxbqnbRw52hGMhhGf4svx3LQ+bt6Wd5D7Ji6Mw
qDSB1EgKtKcZQqlaNZQyw6d611BsbcjSfz4MVB7ABnwsxoL0HlufQt5LyzhZTBcK
oNDbXSxYqWPMwGwXqKSL92w/EcorLdtbA639I1yuMCaWto8EuVGJKSJOkYLvICaM
/wJUZDEBzoEBjKs0BbNKOJdWKXSh6lcl1Jz1J5e8gJrF3/nAU000dd/lI38WEXCD
mZu0PtcT8Xi3N70uZqRT2cd8k6nJ/EkK4k8/nVDZITNS5uVgpco/2XUOVQo+D3pK
5uSK/qkN8g2hv62muE1sNDb8LLY=
-----END CERTIFICATE-----
