Certificate:
    Data:
        Version: 3 (0x2)
        Serial Number:
            23:9a:ec:8f:15:fd:d6:c2:7d:d6:4c:de:11:e3:29:2b
    Signature Algorithm: sha256WithRSAEncryption
        Issuer: C=US, ST=CA, O=Aerospike, Inc., OU=Engineering Test, CN=Chain Signing Cert
        Validity
            Not Before: Nov  5 20:06:00 2020 GMT
            Not After : Nov  4 20:06:00 2024 GMT
        Subject: C=US, ST=CA, O=Aerospike, Inc., OU=Wildcard Test, CN=*.test-runner
        Subject Public Key Info:
            Public Key Algorithm: rsaEncryption
                Public-Key: (2048 bit)
                Modulus:
                    00:ca:26:c7:3c:20:72:0b:d7:3c:9d:c5:80:7e:b0:
                    23:35:6e:2c:ec:08:7a:d0:58:ec:42:78:91:4a:e5:
                    3a:1b:f8:ae:63:cb:27:e2:d7:01:f1:1c:f7:c3:fc:
                    19:b4:7f:0d:7b:12:25:e0:00:6d:68:51:49:79:92:
                    b3:32:6d:2c:fd:d3:cf:d0:90:d2:6d:29:7e:64:ca:
                    38:a8:3f:19:d4:04:70:fe:7f:bb:4e:34:48:94:14:
                    c1:db:b7:d2:77:32:0d:69:00:3e:cc:24:ee:8c:ff:
                    9a:3b:dc:ba:d6:ec:b1:28:51:7a:5f:19:bf:3c:ff:
                    2b:10:3f:82:5a:49:5d:aa:16:97:58:2e:5d:21:15:
                    62:59:59:ff:54:1d:81:ae:53:66:39:ec:95:c6:58:
                    09:72:c1:0c:d5:f1:0e:bb:cc:3d:3b:23:a7:30:cc:
                    9a:7b:11:5a:23:b4:fd:ef:ed:bc:39:7e:23:43:5d:
                    04:42:d9:b4:a7:ad:65:14:c2:e3:74:8b:03:fd:ad:
                    03:29:af:2c:24:9e:51:08:d8:35:aa:f1:28:d2:b1:
                    2a:b5:94:81:d5:85:f9:d5:cf:f2:75:07:ea:02:11:
                    51:79:bd:03:b2:0b:29:84:b2:a8:17:a9:b7:e8:ee:
                    b4:57:f8:39:34:e8:22:df:aa:bc:50:e2:10:5d:58:
                    d1:81
                Exponent: 65537 (0x10001)
        X509v3 extensions:
            X509v3 Authority Key Identifier: 
                keyid:BC:72:1F:3D:E6:B5:5C:BD:B9:2E:98:5E:FD:53:F7:F1:EA:17:70:96

            X509v3 Subject Key Identifier: 
                F3:1D:FF:BE:C9:D7:13:1F:F1:7D:52:ED:EE:49:F7:D0:CD:D5:AB:AF
            X509v3 Key Usage: critical
                Digital Signature, Key Encipherment
            X509v3 Extended Key Usage: 
                TLS Web Server Authentication, TLS Web Client Authentication
            X509v3 CRL Distribution Points: 

                Full Name:
                  URI:http://myhost.com/myca1.crl

                Full Name:
                  URI:http://myhost.com/myca2.crl

            X509v3 Certificate Policies: 
                Policy: 2.16.840.1.114412.1.1
                  CPS: https://myhost.com/CPS
                Policy: 2.23.140.1.2.2

            Authority Information Access: 
                OCSP - URI:http://ocsp.my.host/
                CA Issuers - URI:http://my.ca/ca.html

            X509v3 Basic Constraints: critical
                CA:FALSE
            X509v3 Subject Alternative Name: 
                DNS:*.test-runner
    Signature Algorithm: sha256WithRSAEncryption
         a3:86:8e:54:76:9a:13:ec:85:46:a2:8d:b9:7b:38:6e:b0:f7:
         50:82:af:73:34:0e:d7:02:5f:95:37:df:2f:2a:23:56:5a:19:
         85:a1:d1:ec:44:c9:e3:ee:5c:94:87:e0:49:2a:5c:c2:4d:89:
         1d:8f:14:fb:12:5f:10:03:dc:27:9e:f7:f9:b7:7d:f9:62:96:
         88:96:72:97:bc:ac:a2:de:ba:1b:51:23:71:3a:de:d9:37:99:
         63:87:50:8f:86:11:01:26:3b:ac:d7:1c:ba:f9:0d:6e:a6:5b:
         9d:25:d8:52:1a:54:b2:af:55:5b:59:5b:bf:61:b8:e5:06:c2:
         24:20:5d:89:c2:f3:20:62:09:7a:12:40:e9:14:08:d7:02:dd:
         24:bc:e2:1a:be:e4:e7:e9:49:f5:cb:9b:54:4d:52:fe:b2:bd:
         35:4e:e7:83:4e:3d:18:58:e3:09:66:cc:d8:e1:83:13:60:03:
         da:e6:6c:c0:8f:a6:25:73:36:b2:fa:9c:0a:e8:9f:a2:7d:44:
         a5:57:42:55:57:88:ea:76:c1:86:b2:e0:88:02:ff:9f:7e:3d:
         85:e5:e0:31:96:88:fa:49:36:22:30:d0:9d:dc:b5:a3:bd:18:
         1e:cb:cb:41:bf:a8:34:98:34:e9:91:92:63:60:e7:82:5f:13:
         e4:e4:0c:d4
-----BEGIN CERTIFICATE-----
MIIE5DCCA8ygAwIBAgIQI5rsjxX91sJ91kzeEeMpKzANBgkqhkiG9w0BAQsFADBs
MQswCQYDVQQGEwJVUzELMAkGA1UECAwCQ0ExGDAWBgNVBAoMD0Flcm9zcGlrZSwg
SW5jLjEZMBcGA1UECwwQRW5naW5lZXJpbmcgVGVzdDEbMBkGA1UEAwwSQ2hhaW4g
U2lnbmluZyBDZXJ0MB4XDTIwMTEwNTIwMDYwMFoXDTI0MTEwNDIwMDYwMFowZDEL
MAkGA1UEBhMCVVMxCzAJBgNVBAgMAkNBMRgwFgYDVQQKDA9BZXJvc3Bpa2UsIElu
Yy4xFjAUBgNVBAsMDVdpbGRjYXJkIFRlc3QxFjAUBgNVBAMMDSoudGVzdC1ydW5u
ZXIwggEiMA0GCSqGSIb3DQEBAQUAA4IBDwAwggEKAoIBAQDKJsc8IHIL1zydxYB+
sCM1bizsCHrQWOxCeJFK5Tob+K5jyyfi1wHxHPfD/Bm0fw17EiXgAG1oUUl5krMy
bSz908/QkNJtKX5kyjioPxnUBHD+f7tONEiUFMHbt9J3Mg1pAD7MJO6M/5o73LrW
7LEoUXpfGb88/ysQP4JaSV2qFpdYLl0hFWJZWf9UHYGuU2Y57JXGWAlywQzV8Q67
zD07I6cwzJp7EVojtP3v7bw5fiNDXQRC2bSnrWUUwuN0iwP9rQMprywknlEI2DWq
8SjSsSq1lIHVhfnVz/J1B+oCEVF5vQOyCymEsqgXqbfo7rRX+Dk06CLfqrxQ4hBd
WNGBAgMBAAGjggGIMIIBhDAfBgNVHSMEGDAWgBS8ch895rVcvbkumF79U/fx6hdw
ljAdBgNVHQ4EFgQU8x3/vsnXEx/xfVLt7kn30M3Vq68wDgYDVR0PAQH/BAQDAgWg
MB0GA1UdJQQWMBQGCCsGAQUFBwMBBggrBgEFBQcDAjBPBgNVHR8ESDBGMCGgH6Ad
hhtodHRwOi8vbXlob3N0LmNvbS9teWNhMS5jcmwwIaAfoB2GG2h0dHA6Ly9teWhv
c3QuY29tL215Y2EyLmNybDBGBgNVHSAEPzA9MDEGCWCGSAGG/WwBATAkMCIGCCsG
AQUFBwIBFhZodHRwczovL215aG9zdC5jb20vQ1BTMAgGBmeBDAECAjBSBggrBgEF
BQcBAQRGMEQwIAYIKwYBBQUHMAGGFGh0dHA6Ly9vY3NwLm15Lmhvc3QvMCAGCCsG
AQUFBzAChhRodHRwOi8vbXkuY2EvY2EuaHRtbDAMBgNVHRMBAf8EAjAAMBgGA1Ud
EQQRMA+CDSoudGVzdC1ydW5uZXIwDQYJKoZIhvcNAQELBQADggEBAKOGjlR2mhPs
hUaijbl7OG6w91CCr3M0DtcCX5U33y8qI1ZaGYWh0exEyePuXJSH4EkqXMJNiR2P
FPsSXxAD3Cee9/m3ffliloiWcpe8rKLeuhtRI3E63tk3mWOHUI+GEQEmO6zXHLr5
DW6mW50l2FIaVLKvVVtZW79huOUGwiQgXYnC8yBiCXoSQOkUCNcC3SS84hq+5Ofp
SfXLm1RNUv6yvTVO54NOPRhY4wlmzNjhgxNgA9rmbMCPpiVzNrL6nAron6J9RKVX
QlVXiOp2wYay4IgC/59+PYXl4DGWiPpJNiIw0J3ctaO9GB7Ly0G/qDSYNOmRkmNg
54JfE+TkDNQ=
-----END CERTIFICATE-----
