Certificate:
    Data:
        Version: 3 (0x2)
        Serial Number:
            23:9a:ec:8f:15:fd:d6:c2:7d:d6:4c:de:11:e3:29:2b
    Signature Algorithm: sha256WithRSAEncryption
        Issuer: C=US, ST=CA, O=Aerospike, Inc., OU=Engineering Test, CN=Chain Signing Cert
        Validity
            Not Before: Nov  5 20:06:00 2020 GMT
            Not After : Nov  4 20:06:00 2024 GMT
        Subject: C=US, ST=CA, O=Aerospike, Inc., OU=Wildcard Test, CN=*.test-runner
        Subject Public Key Info:
            Public Key Algorithm: rsaEncryption
                Public-Key: (2048 bit)
                Modulus:
                    00:ca:26:c7:3c:20:72:0b:d7:3c:9d:c5:80:7e:b0:
                    23:35:6e:2c:ec:08:7a:d0:58:ec:42:78:91:4a:e5:
                    3a:1b:f8:ae:63:cb:27:e2:d7:01:f1:1c:f7:c3:fc:
                    19:b4:7f:0d:7b:12:25:e0:00:6d:68:51:49:79:92:
                    b3:32:6d:2c:fd:d3:cf:d0:90:d2:6d:29:7e:64:ca:
                    38:a8:3f:19:d4:04:70:fe:7f:bb:4e:34:48:94:14:
                    c1:db:b7:d2:77:32:0d:69:00:3e:cc:24:ee:8c:ff:
                    9a:3b:dc:ba:d6:ec:b1:28:51:7a:5f:19:bf:3c:ff:
                    2b:10:3f:82:5a:49:5d:aa:16:97:58:2e:5d:21:15:
                    62:59:59:ff:54:1d:81:ae:53:66:39:ec:95:c6:58:
                    09:72:c1:0c:d5:f1:0e:bb:cc:3d:3b:23:a7:30:cc:
                    9a:7b:11:5a:23:b4:fd:ef:ed:bc:39:7e:23:43:5d:
                    04:42:d9:b4:a7:ad:65:14:c2:e3:74:8b:03:fd:ad:
                    03:29:af:2c:24:9e:51:08:d8:35:aa:f1:28:d2:b1:
                    2a:b5:94:81:d5:85:f9:d5:cf:f2:75:07:ea:02:11:
                    51:79:bd:03:b2:0b:29:84:b2:a8:17:a9:b7:e8:ee:
                    b4:57:f8:39:34:e8:22:df:aa:bc:50:e2:10:5d:58:
                    d1:81
                Exponent: 65537 (0x10001)
        X509v3 extensions:
            X509v3 Authority Key Identifier: 
                keyid:BC:72:1F:3D:E6:B5:5C:BD:B9:2E:98:5E:FD:53:F7:F1:EA:17:70:96

            X509v3 Subject Key Identifier: 
                F3:1D:FF:BE:C9:D7:13:1F:F1:7D:52:ED:EE:49:F7:D0:CD:D5:AB:AF
            X509v3 Key Usage: critical
                Digital Signature, Key Encipherment
            X509v3 Extended Key Usage: 
                TLS Web Server Authentication, TLS Web Client Authentication
            X509v3 CRL Distribution Points: 

                Full Name:
                  URI:http://myhost.com/myca1.crl

                Full Name:
                  URI:http://myhost.com/myca2.crl

            X509v3 Certificate Policies: 
                Policy: 2.16.840.1.114412.1.1
                  CPS: https://myhost.com/CPS
                Policy: 2.23.140.1.2.2

            Authority Information Access: 
                OCSP - URI:http://ocsp.my.host/
                CA Issuers - URI:http://my.ca/ca.html

            X509v3 Basic Constraints: critical
                CA:FALSE
            X509v3 Subject Alternative Name: 
                DNS:*.test-runner
    Signature Algorithm: sha256WithRSAEncryption
         a3:86:8e:54:76:9a:13:ec:85:46:a2:8d:b9:7b:38:6e:b0:f7:
         50:82:af:73:34:0e:d7:02:5f:95:37:df:2f:2a:23:56:5a:19:
         85:a1:d1:ec:44:c9:e3:ee:5c:94:87:e0:49:2a:5c:c2:4d:89:
         1d:8f:14:fb:12:5f:10:03:dc:27:9e:f7:f9:b7:7d:f9:62:96:
         88:96:72:97:bc:ac:a2:de:ba:1b:51:23:71:3a:de:d9:37:99:
         63:87:50:8f:86:11:01:26:3b:ac:d7:1c:ba:f9:0d:6e:a6:5b:
         9d:25:d8:52:1a:54:b2:af:55:5b:59:5b:bf:61:b8:e5:06:c2:
         24:20:5d:89:c2:f3:20:62:09:7a:12:40:e9:14:08:d7:02:dd:
         24:bc:e2:1a:be:e4:e7:e9:49:f5:cb:9b:54:4d:52:fe:b2:bd:
         35:4e:e7:83:4e:3d:18:58:e3:09:66:cc:d8:e1:83:13:60:03:
         da:e6:6c:c0:8f:a6:25:73:36:b2:fa:9c:0a:e8:9f:a2:7d:44:
         a5:57:42:55:57:88:ea:76:c1:86:b2:e0:88:02:ff:9f:7e:3d:
         85:e5:e0:31:96:88:fa:49:36:22:30:d0:9d:dc:b5:a3:bd:18:
         1e:cb:cb:41:bf:a8:34:98:34:e9:91:92:63:60:e7:82:5f:13:
         e4:e4:0c:d4
-----BEGIN CERTIFICATE-----
MIIE5DCCA8ygAwIBAgIQI5rsjxX91sJ91kzeEeMpKzANBgkqhkiG9w0BAQsFADBs
MQswCQYDVQQGEwJVUzELMAkGA1UECAwCQ0ExGDAWBgNVBAoMD0Flcm9zcGlrZSwg
SW5jLjEZMBcGA1UECwwQRW5naW5lZXJpbmcgVGVzdDEbMBkGA1UEAwwSQ2hhaW4g
U2lnbmluZyBDZXJ0MB4XDTIwMTEwNTIwMDYwMFoXDTI0MTEwNDIwMDYwMFowZDEL
MAkGA1UEBhMCVVMxCzAJBgNVBAgMAkNBMRgwFgYDVQQKDA9BZXJvc3Bpa2UsIElu
Yy4xFjAUBgNVBAsMDVdpbGRjYXJkIFRlc3QxFjAUBgNVBAMMDSoudGVzdC1ydW5u
ZXIwggEiMA0GCSqGSIb3DQEBAQUAA4IBDwAwggEKAoIBAQDKJsc8IHIL1zydxYB+
sCM1bizsCHrQWOxCeJFK5Tob+K5jyyfi1wHxHPfD/Bm0fw17EiXgAG1oUUl5krMy
bSz908/QkNJtKX5kyjioPxnUBHD+f7tONEiUFMHbt9J3Mg1pAD7MJO6M/5o73LrW
7LEoUXpfGb88/ysQP4JaSV2qFpdYLl0hFWJZWf9UHYGuU2Y57JXGWAlywQzV8Q67
zD07I6cwzJp7EVojtP3v7bw5fiNDXQRC2bSnrWUUwuN0iwP9rQMprywknlEI2DWq
8SjSsSq1lIHVhfnVz/J1B+oCEVF5vQOyCymEsqgXqbfo7rRX+Dk06CLfqrxQ4hBd
WNGBAgMBAAGjggGIMIIBhDAfBgNVHSMEGDAWgBS8ch895rVcvbkumF79U/fx6hdw
ljAdBgNVHQ4EFgQU8x3/vsnXEx/xfVLt7kn30M3Vq68wDgYDVR0PAQH/BAQDAgWg
MB0GA1UdJQQWMBQGCCsGAQUFBwMBBggrBgEFBQcDAjBPBgNVHR8ESDBGMCGgH6Ad
hhtodHRwOi8vbXlob3N0LmNvbS9teWNhMS5jcmwwIaAfoB2GG2h0dHA6Ly9teWhv
c3QuY29tL215Y2EyLmNybDBGBgNVHSAEPzA9MDEGCWCGSAGG/WwBATAkMCIGCCsG
AQUFBwIBFhZodHRwczovL215aG9zdC5jb20vQ1BTMAgGBmeBDAECAjBSBggrBgEF
BQcBAQRGMEQwIAYIKwYBBQUHMAGGFGh0dHA6Ly9vY3NwLm15Lmhvc3QvMCAGCCsG
AQUFBzAChhRodHRwOi8vbXkuY2EvY2EuaHRtbDAMBgNVHRMBAf8EAjAAMBgGA1Ud
EQQRMA+CDSoudGVzdC1ydW5uZXIwDQYJKoZIhvcNAQELBQADggEBAKOGjlR2mhPs
hUaijbl7OG6w91CCr3M0DtcCX5U33y8qI1ZaGYWh0exEyePuXJSH4EkqXMJNiR2P
FPsSXxAD3Cee9/m3ffliloiWcpe8rKLeuhtRI3E63tk3mWOHUI+GEQEmO6zXHLr5
DW6mW50l2FIaVLKvVVtZW79huOUGwiQgXYnC8yBiCXoSQOkUCNcC3SS84hq+5Ofp
SfXLm1RNUv6yvTVO54NOPRhY4wlmzNjhgxNgA9rmbMCPpiVzNrL6nAron6J9RKVX
QlVXiOp2wYay4IgC/59+PYXl4DGWiPpJNiIw0J3ctaO9GB7Ly0G/qDSYNOmRkmNg
54JfE+TkDNQ=
-----END CERTIFICATE-----
Certificate:
    Data:
        Version: 3 (0x2)
        Serial Number:
            74:1c:15:a7:eb:cf:32:43:a9:06:23:7b:91:27:17:b2
    Signature Algorithm: sha256WithRSAEncryption
        Issuer: C=US, ST=CA, L=Mountain View, O=Aerospike, Inc., OU=Engineering Test, CN=Root CA
        Validity
            Not Before: Nov  5 20:06:00 2020 GMT
            Not After : Nov  4 20:06:00 2024 GMT
        Subject: C=US, ST=CA, O=Aerospike, Inc., OU=Engineering Test, CN=Chain Signing Cert
        Subject Public Key Info:
            Public Key Algorithm: rsaEncryption
                Public-Key: (2048 bit)
                Modulus:
                    00:b4:f0:1a:07:98:ab:c8:43:ea:b6:f5:34:2d:a5:
                    2b:2e:8e:f1:e1:fc:f7:6e:8c:a7:50:b9:fb:55:da:
                    23:44:ff:2d:e0:68:de:a4:f8:74:47:ef:46:01:11:
                    50:22:7e:bd:d7:38:ba:31:e6:d5:72:78:1e:45:47:
                    49:1b:27:7a:10:1b:f9:34:75:01:44:55:37:be:c8:
                    e7:b4:9f:01:68:f3:e6:4f:35:a5:38:9e:87:8f:1f:
                    53:ea:0b:0b:1d:63:d9:45:1f:4d:be:36:90:ac:b4:
                    af:c7:4d:39:ab:5b:42:e5:81:d7:c8:95:e3:76:7a:
                    fd:86:c4:26:13:2b:27:27:1d:e9:ee:cd:6c:cc:41:
                    47:b1:a5:4e:fb:4d:30:bb:ba:68:1a:3c:e8:71:94:
                    f1:ae:3f:8c:5e:be:72:72:97:3e:e5:f0:1b:d0:f7:
                    5c:14:14:54:3d:2d:3c:0d:75:7f:3d:54:b0:a8:f0:
                    3e:68:c5:b8:5d:35:71:c0:b5:66:88:6a:9e:af:14:
                    34:1f:2f:4d:c6:f2:73:3a:d8:47:9e:b6:d7:b1:54:
                    74:b9:21:1f:62:18:10:ad:09:19:51:65:5b:4f:b2:
                    1a:54:5c:86:c4:42:45:97:d5:2f:2e:54:71:cc:52:
                    76:af:dd:e2:21:a0:ee:9a:4d:2b:79:47:8a:47:30:
                    7f:c7
                Exponent: 65537 (0x10001)
        X509v3 extensions:
            X509v3 Basic Constraints: critical
                CA:TRUE, pathlen:0
            X509v3 Key Usage: critical
                Digital Signature, Key Encipherment, Certificate Sign, CRL Sign
            X509v3 Extended Key Usage: 
                TLS Web Server Authentication, TLS Web Client Authentication
            Authority Information Access: 
                OCSP - URI:http://ocsp.my.host/

            X509v3 CRL Distribution Points: 

                Full Name:
                  URI:http://myhost.com/myca.crl

            X509v3 Certificate Policies: 
                Policy: X509v3 Any Policy
                  CPS: https://myhost.com/CPS

            X509v3 Subject Key Identifier: 
                BC:72:1F:3D:E6:B5:5C:BD:B9:2E:98:5E:FD:53:F7:F1:EA:17:70:96
            X509v3 Authority Key Identifier: 
                keyid:CB:DD:69:7B:6D:3D:C7:6F:36:C0:EB:AF:4C:26:4D:3E:E0:97:53:61

    Signature Algorithm: sha256WithRSAEncryption
         01:c9:f8:3e:bd:55:a0:3b:39:81:5e:c3:81:59:c0:40:31:6e:
         a9:db:47:0e:76:84:63:21:84:67:f8:b2:fc:77:2d:0f:9b:b7:
         a5:9d:e4:3e:c9:8b:a3:30:a8:34:81:d4:48:0a:b4:a7:19:42:
         a9:5a:35:94:32:c3:a7:7a:d7:50:6c:6d:c8:d2:7f:3e:0c:54:
         1e:c0:06:7c:2c:c6:82:f4:1e:5b:9f:42:de:4b:cb:38:59:4c:
         17:0a:a0:d0:db:5d:2c:58:a9:63:cc:c0:6c:17:a8:a4:8b:f7:
         6c:3f:11:ca:2b:2d:db:5b:03:ad:fd:23:5c:ae:30:26:96:b6:
         8f:04:b9:51:89:29:22:4e:91:82:ef:20:26:8c:ff:02:54:64:
         31:01:ce:81:01:8c:ab:34:05:b3:4a:38:97:56:29:74:a1:ea:
         57:25:d4:9c:f5:27:97:bc:80:9a:c5:df:f9:c0:53:4d:34:75:
         df:e5:23:7f:16:11:70:83:99:9b:b4:3e:d7:13:f1:78:b7:37:
         bd:2e:66:a4:53:d9:c7:7c:93:a9:c9:fc:49:0a:e2:4f:3f:9d:
         50:d9:21:33:52:e6:e5:60:a5:ca:3f:d9:75:0e:55:0a:3e:0f:
         7a:4a:e6:e4:8a:fe:a9:0d:f2:0d:a1:bf:ad:a6:b8:4d:6c:34:
         36:fc:2c:b6
-----BEGIN CERTIFICATE-----
MIIEkDCCA3igAwIBAgIQdBwVp+vPMkOpBiN7kScXsjANBgkqhkiG9w0BAQsFADB5
MQswCQYDVQQGEwJVUzELMAkGA1UECAwCQ0ExFjAUBgNVBAcMDU1vdW50YWluIFZp
ZXcxGDAWBgNVBAoMD0Flcm9zcGlrZSwgSW5jLjEZMBcGA1UECwwQRW5naW5lZXJp
bmcgVGVzdDEQMA4GA1UEAwwHUm9vdCBDQTAeFw0yMDExMDUyMDA2MDBaFw0yNDEx
MDQyMDA2MDBaMGwxCzAJBgNVBAYTAlVTMQswCQYDVQQIDAJDQTEYMBYGA1UECgwP
QWVyb3NwaWtlLCBJbmMuMRkwFwYDVQQLDBBFbmdpbmVlcmluZyBUZXN0MRswGQYD
VQQDDBJDaGFpbiBTaWduaW5nIENlcnQwggEiMA0GCSqGSIb3DQEBAQUAA4IBDwAw
ggEKAoIBAQC08BoHmKvIQ+q29TQtpSsujvHh/PdujKdQuftV2iNE/y3gaN6k+HRH
70YBEVAifr3XOLox5tVyeB5FR0kbJ3oQG/k0dQFEVTe+yOe0nwFo8+ZPNaU4noeP
H1PqCwsdY9lFH02+NpCstK/HTTmrW0LlgdfIleN2ev2GxCYTKycnHenuzWzMQUex
pU77TTC7umgaPOhxlPGuP4xevnJylz7l8BvQ91wUFFQ9LTwNdX89VLCo8D5oxbhd
NXHAtWaIap6vFDQfL03G8nM62EeettexVHS5IR9iGBCtCRlRZVtPshpUXIbEQkWX
1S8uVHHMUnav3eIhoO6aTSt5R4pHMH/HAgMBAAGjggEfMIIBGzASBgNVHRMBAf8E
CDAGAQH/AgEAMA4GA1UdDwEB/wQEAwIBpjAdBgNVHSUEFjAUBggrBgEFBQcDAQYI
KwYBBQUHAwIwMAYIKwYBBQUHAQEEJDAiMCAGCCsGAQUFBzABhhRodHRwOi8vb2Nz
cC5teS5ob3N0LzArBgNVHR8EJDAiMCCgHqAchhpodHRwOi8vbXlob3N0LmNvbS9t
eWNhLmNybDA3BgNVHSAEMDAuMCwGBFUdIAAwJDAiBggrBgEFBQcCARYWaHR0cHM6
Ly9teWhvc3QuY29tL0NQUzAdBgNVHQ4EFgQUvHIfPea1XL25Lphe/VP38eoXcJYw
HwYDVR0jBBgwFoAUy91pe209x282wOuvTCZNPuCXU2EwDQYJKoZIhvcNAQELBQAD
ggEBAAHJ+D69VaA7OYFew4FZwEAxbqnbRw52hGMhhGf4svx3LQ+bt6Wd5D7Ji6Mw
qDSB1EgKtKcZQqlaNZQyw6d611BsbcjSfz4MVB7ABnwsxoL0HlufQt5LyzhZTBcK
oNDbXSxYqWPMwGwXqKSL92w/EcorLdtbA639I1yuMCaWto8EuVGJKSJOkYLvICaM
/wJUZDEBzoEBjKs0BbNKOJdWKXSh6lcl1Jz1J5e8gJrF3/nAU000dd/lI38WEXCD
mZu0PtcT8Xi3N70uZqRT2cd8k6nJ/EkK4k8/nVDZITNS5uVgpco/2XUOVQo+D3pK
5uSK/qkN8g2hv62muE1sNDb8LLY=
-----END CERTIFICATE-----
