Certificate:
    Data:
        Version: 3 (0x2)
        Serial Number:
            66:a2:3e:b5:47:81:50:80:df:1a:19:0f:77:82:64:6f
    Signature Algorithm: sha256WithRSAEncryption
        Issuer: C=US, ST=CA, O=Aerospike, Inc., OU=Engineering Test, CN=Chain Signing Cert
        Validity
            Not Before: Nov  5 20:06:01 2020 GMT
            Not After : Nov  4 20:06:01 2024 GMT
        Subject: C=US, ST=CA, O=Aerospike, Inc., OU=Test MultiServer, CN=aerospike-b-0.test-runner
        Subject Public Key Info:
            Public Key Algorithm: rsaEncryption
                Public-Key: (2048 bit)
                Modulus:
                    00:bc:54:bb:83:0a:19:bf:a2:39:2a:17:ba:1e:02:
                    17:69:0e:00:4f:1b:c3:ff:d6:d0:45:b6:93:e0:dd:
                    55:ca:a0:68:2b:53:6d:21:66:23:b7:77:20:dd:90:
                    92:27:81:a9:e8:54:ac:e1:26:c0:da:99:61:20:e7:
                    49:37:b6:e9:60:52:87:27:bf:2c:16:52:74:3d:06:
                    b1:70:4d:23:00:29:f7:c4:5b:af:33:f8:76:8f:6b:
                    38:78:df:ff:70:58:84:b1:b3:d5:0e:78:0a:51:60:
                    f3:85:dd:7c:a4:81:44:a7:ba:3f:12:e2:72:74:48:
                    6b:3b:65:0d:31:55:37:89:b8:b0:29:6e:c2:af:8e:
                    62:58:b3:55:bf:a6:df:69:4c:3d:85:93:91:16:0e:
                    a6:0a:9d:08:b2:7a:e3:31:11:53:eb:04:90:a0:6f:
                    4b:bd:33:34:3a:1c:e3:0b:c7:84:59:43:29:ad:e6:
                    5c:5f:6f:0c:f2:83:ce:7f:3a:5f:94:5f:33:5b:75:
                    15:77:7d:4a:c7:98:8d:fb:45:a1:2c:06:48:4d:e5:
                    b3:be:fb:3a:90:32:9b:42:63:e5:0d:e4:c1:56:3d:
                    ec:66:4d:64:be:c8:b2:e6:42:f3:ee:85:a9:bd:95:
                    62:57:2e:b0:66:eb:58:7a:0d:44:23:50:b4:67:91:
                    82:4b
                Exponent: 65537 (0x10001)
        X509v3 extensions:
            X509v3 Authority Key Identifier: 
                keyid:BC:72:1F:3D:E6:B5:5C:BD:B9:2E:98:5E:FD:53:F7:F1:EA:17:70:96

            X509v3 Subject Key Identifier: 
                3C:F7:F7:CC:9C:78:E3:68:67:27:A8:9B:4D:D0:D8:5C:80:40:36:DC
            X509v3 Key Usage: critical
                Digital Signature, Key Encipherment
            X509v3 Extended Key Usage: 
                TLS Web Server Authentication, TLS Web Client Authentication
            X509v3 CRL Distribution Points: 

                Full Name:
                  URI:http://myhost.com/myca1.crl

                Full Name:
                  URI:http://myhost.com/myca2.crl

            X509v3 Certificate Policies: 
                Policy: 2.16.840.1.114412.1.1
                  CPS: https://myhost.com/CPS
                Policy: 2.23.140.1.2.2

            Authority Information Access: 
                OCSP - URI:http://ocsp.my.host/
                CA Issuers - URI:http://my.ca/ca.html

            X509v3 Basic Constraints: critical
                CA:FALSE
            X509v3 Subject Alternative Name: 
                DNS:aerospike-b-0.test-runner, DNS:aerospike-b-1.test-runner, DNS:aerospike-b-2.test-runner, DNS:aerospike-b-3.test-runner, DNS:aerospike-b-4.test-runner, DNS:aerospike-b-5.test-runner
    Signature Algorithm: sha256WithRSAEncryption
         0f:ad:18:6a:18:4c:8e:71:b5:45:3d:59:ba:be:23:07:6e:30:
         19:42:2a:f4:b4:5f:b3:de:00:8b:09:f7:9a:ec:6e:e0:e1:cd:
         8a:f1:82:45:03:bd:0b:a8:50:82:5d:f7:a8:6b:4d:f1:e0:07:
         50:ac:68:65:25:90:c2:82:e6:da:cd:fb:3a:ae:6f:12:49:ff:
         99:c1:20:5a:1f:22:4d:5e:b5:4a:06:eb:67:11:02:58:50:e6:
         20:99:5c:01:48:ad:0a:97:28:c8:65:c1:f4:ce:da:9f:c6:9e:
         8b:92:a1:13:95:18:d3:ba:31:10:ea:58:86:de:37:26:e7:47:
         fc:64:98:1d:45:7e:ec:85:44:12:64:e2:c0:56:89:71:bd:da:
         65:cd:e3:77:1e:e8:aa:45:7e:93:6e:af:6a:6b:01:72:bd:50:
         56:f5:bf:2e:96:97:e2:1a:b7:2a:c5:cc:7b:a7:12:c4:81:e5:
         02:a9:75:b5:2b:82:2b:2b:28:0f:72:7e:8d:08:b5:fe:3d:a3:
         4e:1e:18:df:24:76:ca:c8:75:f2:20:e7:8d:6a:e7:24:6b:d3:
         12:74:12:04:73:e9:78:fe:90:cd:f8:8f:f7:93:53:a2:cc:5b:
         da:df:ca:33:20:e4:59:99:0c:f6:bd:61:e0:16:d5:8b:c8:61:
         df:aa:40:1f
-----BEGIN CERTIFICATE-----
MIIFiTCCBHGgAwIBAgIQZqI+tUeBUIDfGhkPd4JkbzANBgkqhkiG9w0BAQsFADBs
MQswCQYDVQQGEwJVUzELMAkGA1UECAwCQ0ExGDAWBgNVBAoMD0Flcm9zcGlrZSwg
SW5jLjEZMBcGA1UECwwQRW5naW5lZXJpbmcgVGVzdDEbMBkGA1UEAwwSQ2hhaW4g
U2lnbmluZyBDZXJ0MB4XDTIwMTEwNTIwMDYwMVoXDTI0MTEwNDIwMDYwMVowczEL
MAkGA1UEBhMCVVMxCzAJBgNVBAgMAkNBMRgwFgYDVQQKDA9BZXJvc3Bpa2UsIElu
Yy4xGTAXBgNVBAsMEFRlc3QgTXVsdGlTZXJ2ZXIxIjAgBgNVBAMMGWFlcm9zcGlr
ZS1iLTAudGVzdC1ydW5uZXIwggEiMA0GCSqGSIb3DQEBAQUAA4IBDwAwggEKAoIB
AQC8VLuDChm/ojkqF7oeAhdpDgBPG8P/1tBFtpPg3VXKoGgrU20hZiO3dyDdkJIn
ganoVKzhJsDamWEg50k3tulgUocnvywWUnQ9BrFwTSMAKffEW68z+HaPazh43/9w
WISxs9UOeApRYPOF3XykgUSnuj8S4nJ0SGs7ZQ0xVTeJuLApbsKvjmJYs1W/pt9p
TD2Fk5EWDqYKnQiyeuMxEVPrBJCgb0u9MzQ6HOMLx4RZQymt5lxfbwzyg85/Ol+U
XzNbdRV3fUrHmI37RaEsBkhN5bO++zqQMptCY+UN5MFWPexmTWS+yLLmQvPuham9
lWJXLrBm61h6DUQjULRnkYJLAgMBAAGjggIeMIICGjAfBgNVHSMEGDAWgBS8ch89
5rVcvbkumF79U/fx6hdwljAdBgNVHQ4EFgQUPPf3zJx442hnJ6ibTdDYXIBANtww
DgYDVR0PAQH/BAQDAgWgMB0GA1UdJQQWMBQGCCsGAQUFBwMBBggrBgEFBQcDAjBP
BgNVHR8ESDBGMCGgH6AdhhtodHRwOi8vbXlob3N0LmNvbS9teWNhMS5jcmwwIaAf
oB2GG2h0dHA6Ly9teWhvc3QuY29tL215Y2EyLmNybDBGBgNVHSAEPzA9MDEGCWCG
SAGG/WwBATAkMCIGCCsGAQUFBwIBFhZodHRwczovL215aG9zdC5jb20vQ1BTMAgG
BmeBDAECAjBSBggrBgEFBQcBAQRGMEQwIAYIKwYBBQUHMAGGFGh0dHA6Ly9vY3Nw
Lm15Lmhvc3QvMCAGCCsGAQUFBzAChhRodHRwOi8vbXkuY2EvY2EuaHRtbDAMBgNV
HRMBAf8EAjAAMIGtBgNVHREEgaUwgaKCGWFlcm9zcGlrZS1iLTAudGVzdC1ydW5u
ZXKCGWFlcm9zcGlrZS1iLTEudGVzdC1ydW5uZXKCGWFlcm9zcGlrZS1iLTIudGVz
dC1ydW5uZXKCGWFlcm9zcGlrZS1iLTMudGVzdC1ydW5uZXKCGWFlcm9zcGlrZS1i
LTQudGVzdC1ydW5uZXKCGWFlcm9zcGlrZS1iLTUudGVzdC1ydW5uZXIwDQYJKoZI
hvcNAQELBQADggEBAA+tGGoYTI5xtUU9Wbq+IwduMBlCKvS0X7PeAIsJ95rsbuDh
zYrxgkUDvQuoUIJd96hrTfHgB1CsaGUlkMKC5trN+zqubxJJ/5nBIFofIk1etUoG
62cRAlhQ5iCZXAFIrQqXKMhlwfTO2p/GnouSoROVGNO6MRDqWIbeNybnR/xkmB1F
fuyFRBJk4sBWiXG92mXN43ce6KpFfpNur2prAXK9UFb1vy6Wl+IatyrFzHunEsSB
5QKpdbUrgisrKA9yfo0Itf49o04eGN8kdsrIdfIg541q5yRr0xJ0EgRz6Xj+kM34
j/eTU6LMW9rfyjMg5FmZDPa9YeAW1YvIYd+qQB8=
-----END CERTIFICATE-----
