Certificate:
    Data:
        Version: 3 (0x2)
        Serial Number:
            66:a2:3e:b5:47:81:50:80:df:1a:19:0f:77:82:64:6f
    Signature Algorithm: sha256WithRSAEncryption
        Issuer: C=US, ST=CA, O=Aerospike, Inc., OU=Engineering Test, CN=Chain Signing Cert
        Validity
            Not Before: Nov  5 20:06:01 2020 GMT
            Not After : Nov  4 20:06:01 2024 GMT
        Subject: C=US, ST=CA, O=Aerospike, Inc., OU=Test MultiServer, CN=aerospike-b-0.test-runner
        Subject Public Key Info:
            Public Key Algorithm: rsaEncryption
                Public-Key: (2048 bit)
                Modulus:
                    00:bc:54:bb:83:0a:19:bf:a2:39:2a:17:ba:1e:02:
                    17:69:0e:00:4f:1b:c3:ff:d6:d0:45:b6:93:e0:dd:
                    55:ca:a0:68:2b:53:6d:21:66:23:b7:77:20:dd:90:
                    92:27:81:a9:e8:54:ac:e1:26:c0:da:99:61:20:e7:
                    49:37:b6:e9:60:52:87:27:bf:2c:16:52:74:3d:06:
                    b1:70:4d:23:00:29:f7:c4:5b:af:33:f8:76:8f:6b:
                    38:78:df:ff:70:58:84:b1:b3:d5:0e:78:0a:51:60:
                    f3:85:dd:7c:a4:81:44:a7:ba:3f:12:e2:72:74:48:
                    6b:3b:65:0d:31:55:37:89:b8:b0:29:6e:c2:af:8e:
                    62:58:b3:55:bf:a6:df:69:4c:3d:85:93:91:16:0e:
                    a6:0a:9d:08:b2:7a:e3:31:11:53:eb:04:90:a0:6f:
                    4b:bd:33:34:3a:1c:e3:0b:c7:84:59:43:29:ad:e6:
                    5c:5f:6f:0c:f2:83:ce:7f:3a:5f:94:5f:33:5b:75:
                    15:77:7d:4a:c7:98:8d:fb:45:a1:2c:06:48:4d:e5:
                    b3:be:fb:3a:90:32:9b:42:63:e5:0d:e4:c1:56:3d:
                    ec:66:4d:64:be:c8:b2:e6:42:f3:ee:85:a9:bd:95:
                    62:57:2e:b0:66:eb:58:7a:0d:44:23:50:b4:67:91:
                    82:4b
                Exponent: 65537 (0x10001)
        X509v3 extensions:
            X509v3 Authority Key Identifier: 
                keyid:BC:72:1F:3D:E6:B5:5C:BD:B9:2E:98:5E:FD:53:F7:F1:EA:17:70:96

            X509v3 Subject Key Identifier: 
                3C:F7:F7:CC:9C:78:E3:68:67:27:A8:9B:4D:D0:D8:5C:80:40:36:DC
            X509v3 Key Usage: critical
                Digital Signature, Key Encipherment
            X509v3 Extended Key Usage: 
                TLS Web Server Authentication, TLS Web Client Authentication
            X509v3 CRL Distribution Points: 

                Full Name:
                  URI:http://myhost.com/myca1.crl

                Full Name:
                  URI:http://myhost.com/myca2.crl

            X509v3 Certificate Policies: 
                Policy: 2.16.840.1.114412.1.1
                  CPS: https://myhost.com/CPS
                Policy: 2.23.140.1.2.2

            Authority Information Access: 
                OCSP - URI:http://ocsp.my.host/
                CA Issuers - URI:http://my.ca/ca.html

            X509v3 Basic Constraints: critical
                CA:FALSE
            X509v3 Subject Alternative Name: 
                DNS:aerospike-b-0.test-runner, DNS:aerospike-b-1.test-runner, DNS:aerospike-b-2.test-runner, DNS:aerospike-b-3.test-runner, DNS:aerospike-b-4.test-runner, DNS:aerospike-b-5.test-runner
    Signature Algorithm: sha256WithRSAEncryption
         0f:ad:18:6a:18:4c:8e:71:b5:45:3d:59:ba:be:23:07:6e:30:
         19:42:2a:f4:b4:5f:b3:de:00:8b:09:f7:9a:ec:6e:e0:e1:cd:
         8a:f1:82:45:03:bd:0b:a8:50:82:5d:f7:a8:6b:4d:f1:e0:07:
         50:ac:68:65:25:90:c2:82:e6:da:cd:fb:3a:ae:6f:12:49:ff:
         99:c1:20:5a:1f:22:4d:5e:b5:4a:06:eb:67:11:02:58:50:e6:
         20:99:5c:01:48:ad:0a:97:28:c8:65:c1:f4:ce:da:9f:c6:9e:
         8b:92:a1:13:95:18:d3:ba:31:10:ea:58:86:de:37:26:e7:47:
         fc:64:98:1d:45:7e:ec:85:44:12:64:e2:c0:56:89:71:bd:da:
         65:cd:e3:77:1e:e8:aa:45:7e:93:6e:af:6a:6b:01:72:bd:50:
         56:f5:bf:2e:96:97:e2:1a:b7:2a:c5:cc:7b:a7:12:c4:81:e5:
         02:a9:75:b5:2b:82:2b:2b:28:0f:72:7e:8d:08:b5:fe:3d:a3:
         4e:1e:18:df:24:76:ca:c8:75:f2:20:e7:8d:6a:e7:24:6b:d3:
         12:74:12:04:73:e9:78:fe:90:cd:f8:8f:f7:93:53:a2:cc:5b:
         da:df:ca:33:20:e4:59:99:0c:f6:bd:61:e0:16:d5:8b:c8:61:
         df:aa:40:1f
-----BEGIN CERTIFICATE-----
MIIFiTCCBHGgAwIBAgIQZqI+tUeBUIDfGhkPd4JkbzANBgkqhkiG9w0BAQsFADBs
MQswCQYDVQQGEwJVUzELMAkGA1UECAwCQ0ExGDAWBgNVBAoMD0Flcm9zcGlrZSwg
SW5jLjEZMBcGA1UECwwQRW5naW5lZXJpbmcgVGVzdDEbMBkGA1UEAwwSQ2hhaW4g
U2lnbmluZyBDZXJ0MB4XDTIwMTEwNTIwMDYwMVoXDTI0MTEwNDIwMDYwMVowczEL
MAkGA1UEBhMCVVMxCzAJBgNVBAgMAkNBMRgwFgYDVQQKDA9BZXJvc3Bpa2UsIElu
Yy4xGTAXBgNVBAsMEFRlc3QgTXVsdGlTZXJ2ZXIxIjAgBgNVBAMMGWFlcm9zcGlr
ZS1iLTAudGVzdC1ydW5uZXIwggEiMA0GCSqGSIb3DQEBAQUAA4IBDwAwggEKAoIB
AQC8VLuDChm/ojkqF7oeAhdpDgBPG8P/1tBFtpPg3VXKoGgrU20hZiO3dyDdkJIn
ganoVKzhJsDamWEg50k3tulgUocnvywWUnQ9BrFwTSMAKffEW68z+HaPazh43/9w
WISxs9UOeApRYPOF3XykgUSnuj8S4nJ0SGs7ZQ0xVTeJuLApbsKvjmJYs1W/pt9p
TD2Fk5EWDqYKnQiyeuMxEVPrBJCgb0u9MzQ6HOMLx4RZQymt5lxfbwzyg85/Ol+U
XzNbdRV3fUrHmI37RaEsBkhN5bO++zqQMptCY+UN5MFWPexmTWS+yLLmQvPuham9
lWJXLrBm61h6DUQjULRnkYJLAgMBAAGjggIeMIICGjAfBgNVHSMEGDAWgBS8ch89
5rVcvbkumF79U/fx6hdwljAdBgNVHQ4EFgQUPPf3zJx442hnJ6ibTdDYXIBANtww
DgYDVR0PAQH/BAQDAgWgMB0GA1UdJQQWMBQGCCsGAQUFBwMBBggrBgEFBQcDAjBP
BgNVHR8ESDBGMCGgH6AdhhtodHRwOi8vbXlob3N0LmNvbS9teWNhMS5jcmwwIaAf
oB2GG2h0dHA6Ly9teWhvc3QuY29tL215Y2EyLmNybDBGBgNVHSAEPzA9MDEGCWCG
SAGG/WwBATAkMCIGCCsGAQUFBwIBFhZodHRwczovL215aG9zdC5jb20vQ1BTMAgG
BmeBDAECAjBSBggrBgEFBQcBAQRGMEQwIAYIKwYBBQUHMAGGFGh0dHA6Ly9vY3Nw
Lm15Lmhvc3QvMCAGCCsGAQUFBzAChhRodHRwOi8vbXkuY2EvY2EuaHRtbDAMBgNV
HRMBAf8EAjAAMIGtBgNVHREEgaUwgaKCGWFlcm9zcGlrZS1iLTAudGVzdC1ydW5u
ZXKCGWFlcm9zcGlrZS1iLTEudGVzdC1ydW5uZXKCGWFlcm9zcGlrZS1iLTIudGVz
dC1ydW5uZXKCGWFlcm9zcGlrZS1iLTMudGVzdC1ydW5uZXKCGWFlcm9zcGlrZS1i
LTQudGVzdC1ydW5uZXKCGWFlcm9zcGlrZS1iLTUudGVzdC1ydW5uZXIwDQYJKoZI
hvcNAQELBQADggEBAA+tGGoYTI5xtUU9Wbq+IwduMBlCKvS0X7PeAIsJ95rsbuDh
zYrxgkUDvQuoUIJd96hrTfHgB1CsaGUlkMKC5trN+zqubxJJ/5nBIFofIk1etUoG
62cRAlhQ5iCZXAFIrQqXKMhlwfTO2p/GnouSoROVGNO6MRDqWIbeNybnR/xkmB1F
fuyFRBJk4sBWiXG92mXN43ce6KpFfpNur2prAXK9UFb1vy6Wl+IatyrFzHunEsSB
5QKpdbUrgisrKA9yfo0Itf49o04eGN8kdsrIdfIg541q5yRr0xJ0EgRz6Xj+kM34
j/eTU6LMW9rfyjMg5FmZDPa9YeAW1YvIYd+qQB8=
-----END CERTIFICATE-----
Certificate:
    Data:
        Version: 3 (0x2)
        Serial Number:
            74:1c:15:a7:eb:cf:32:43:a9:06:23:7b:91:27:17:b2
    Signature Algorithm: sha256WithRSAEncryption
        Issuer: C=US, ST=CA, L=Mountain View, O=Aerospike, Inc., OU=Engineering Test, CN=Root CA
        Validity
            Not Before: Nov  5 20:06:00 2020 GMT
            Not After : Nov  4 20:06:00 2024 GMT
        Subject: C=US, ST=CA, O=Aerospike, Inc., OU=Engineering Test, CN=Chain Signing Cert
        Subject Public Key Info:
            Public Key Algorithm: rsaEncryption
                Public-Key: (2048 bit)
                Modulus:
                    00:b4:f0:1a:07:98:ab:c8:43:ea:b6:f5:34:2d:a5:
                    2b:2e:8e:f1:e1:fc:f7:6e:8c:a7:50:b9:fb:55:da:
                    23:44:ff:2d:e0:68:de:a4:f8:74:47:ef:46:01:11:
                    50:22:7e:bd:d7:38:ba:31:e6:d5:72:78:1e:45:47:
                    49:1b:27:7a:10:1b:f9:34:75:01:44:55:37:be:c8:
                    e7:b4:9f:01:68:f3:e6:4f:35:a5:38:9e:87:8f:1f:
                    53:ea:0b:0b:1d:63:d9:45:1f:4d:be:36:90:ac:b4:
                    af:c7:4d:39:ab:5b:42:e5:81:d7:c8:95:e3:76:7a:
                    fd:86:c4:26:13:2b:27:27:1d:e9:ee:cd:6c:cc:41:
                    47:b1:a5:4e:fb:4d:30:bb:ba:68:1a:3c:e8:71:94:
                    f1:ae:3f:8c:5e:be:72:72:97:3e:e5:f0:1b:d0:f7:
                    5c:14:14:54:3d:2d:3c:0d:75:7f:3d:54:b0:a8:f0:
                    3e:68:c5:b8:5d:35:71:c0:b5:66:88:6a:9e:af:14:
                    34:1f:2f:4d:c6:f2:73:3a:d8:47:9e:b6:d7:b1:54:
                    74:b9:21:1f:62:18:10:ad:09:19:51:65:5b:4f:b2:
                    1a:54:5c:86:c4:42:45:97:d5:2f:2e:54:71:cc:52:
                    76:af:dd:e2:21:a0:ee:9a:4d:2b:79:47:8a:47:30:
                    7f:c7
                Exponent: 65537 (0x10001)
        X509v3 extensions:
            X509v3 Basic Constraints: critical
                CA:TRUE, pathlen:0
            X509v3 Key Usage: critical
                Digital Signature, Key Encipherment, Certificate Sign, CRL Sign
            X509v3 Extended Key Usage: 
                TLS Web Server Authentication, TLS Web Client Authentication
            Authority Information Access: 
                OCSP - URI:http://ocsp.my.host/

            X509v3 CRL Distribution Points: 

                Full Name:
                  URI:http://myhost.com/myca.crl

            X509v3 Certificate Policies: 
                Policy: X509v3 Any Policy
                  CPS: https://myhost.com/CPS

            X509v3 Subject Key Identifier: 
                BC:72:1F:3D:E6:B5:5C:BD:B9:2E:98:5E:FD:53:F7:F1:EA:17:70:96
            X509v3 Authority Key Identifier: 
                keyid:CB:DD:69:7B:6D:3D:C7:6F:36:C0:EB:AF:4C:26:4D:3E:E0:97:53:61

    Signature Algorithm: sha256WithRSAEncryption
         01:c9:f8:3e:bd:55:a0:3b:39:81:5e:c3:81:59:c0:40:31:6e:
         a9:db:47:0e:76:84:63:21:84:67:f8:b2:fc:77:2d:0f:9b:b7:
         a5:9d:e4:3e:c9:8b:a3:30:a8:34:81:d4:48:0a:b4:a7:19:42:
         a9:5a:35:94:32:c3:a7:7a:d7:50:6c:6d:c8:d2:7f:3e:0c:54:
         1e:c0:06:7c:2c:c6:82:f4:1e:5b:9f:42:de:4b:cb:38:59:4c:
         17:0a:a0:d0:db:5d:2c:58:a9:63:cc:c0:6c:17:a8:a4:8b:f7:
         6c:3f:11:ca:2b:2d:db:5b:03:ad:fd:23:5c:ae:30:26:96:b6:
         8f:04:b9:51:89:29:22:4e:91:82:ef:20:26:8c:ff:02:54:64:
         31:01:ce:81:01:8c:ab:34:05:b3:4a:38:97:56:29:74:a1:ea:
         57:25:d4:9c:f5:27:97:bc:80:9a:c5:df:f9:c0:53:4d:34:75:
         df:e5:23:7f:16:11:70:83:99:9b:b4:3e:d7:13:f1:78:b7:37:
         bd:2e:66:a4:53:d9:c7:7c:93:a9:c9:fc:49:0a:e2:4f:3f:9d:
         50:d9:21:33:52:e6:e5:60:a5:ca:3f:d9:75:0e:55:0a:3e:0f:
         7a:4a:e6:e4:8a:fe:a9:0d:f2:0d:a1:bf:ad:a6:b8:4d:6c:34:
         36:fc:2c:b6
-----BEGIN CERTIFICATE-----
MIIEkDCCA3igAwIBAgIQdBwVp+vPMkOpBiN7kScXsjANBgkqhkiG9w0BAQsFADB5
MQswCQYDVQQGEwJVUzELMAkGA1UECAwCQ0ExFjAUBgNVBAcMDU1vdW50YWluIFZp
ZXcxGDAWBgNVBAoMD0Flcm9zcGlrZSwgSW5jLjEZMBcGA1UECwwQRW5naW5lZXJp
bmcgVGVzdDEQMA4GA1UEAwwHUm9vdCBDQTAeFw0yMDExMDUyMDA2MDBaFw0yNDEx
MDQyMDA2MDBaMGwxCzAJBgNVBAYTAlVTMQswCQYDVQQIDAJDQTEYMBYGA1UECgwP
QWVyb3NwaWtlLCBJbmMuMRkwFwYDVQQLDBBFbmdpbmVlcmluZyBUZXN0MRswGQYD
VQQDDBJDaGFpbiBTaWduaW5nIENlcnQwggEiMA0GCSqGSIb3DQEBAQUAA4IBDwAw
ggEKAoIBAQC08BoHmKvIQ+q29TQtpSsujvHh/PdujKdQuftV2iNE/y3gaN6k+HRH
70YBEVAifr3XOLox5tVyeB5FR0kbJ3oQG/k0dQFEVTe+yOe0nwFo8+ZPNaU4noeP
H1PqCwsdY9lFH02+NpCstK/HTTmrW0LlgdfIleN2ev2GxCYTKycnHenuzWzMQUex
pU77TTC7umgaPOhxlPGuP4xevnJylz7l8BvQ91wUFFQ9LTwNdX89VLCo8D5oxbhd
NXHAtWaIap6vFDQfL03G8nM62EeettexVHS5IR9iGBCtCRlRZVtPshpUXIbEQkWX
1S8uVHHMUnav3eIhoO6aTSt5R4pHMH/HAgMBAAGjggEfMIIBGzASBgNVHRMBAf8E
CDAGAQH/AgEAMA4GA1UdDwEB/wQEAwIBpjAdBgNVHSUEFjAUBggrBgEFBQcDAQYI
KwYBBQUHAwIwMAYIKwYBBQUHAQEEJDAiMCAGCCsGAQUFBzABhhRodHRwOi8vb2Nz
cC5teS5ob3N0LzArBgNVHR8EJDAiMCCgHqAchhpodHRwOi8vbXlob3N0LmNvbS9t
eWNhLmNybDA3BgNVHSAEMDAuMCwGBFUdIAAwJDAiBggrBgEFBQcCARYWaHR0cHM6
Ly9teWhvc3QuY29tL0NQUzAdBgNVHQ4EFgQUvHIfPea1XL25Lphe/VP38eoXcJYw
HwYDVR0jBBgwFoAUy91pe209x282wOuvTCZNPuCXU2EwDQYJKoZIhvcNAQELBQAD
ggEBAAHJ+D69VaA7OYFew4FZwEAxbqnbRw52hGMhhGf4svx3LQ+bt6Wd5D7Ji6Mw
qDSB1EgKtKcZQqlaNZQyw6d611BsbcjSfz4MVB7ABnwsxoL0HlufQt5LyzhZTBcK
oNDbXSxYqWPMwGwXqKSL92w/EcorLdtbA639I1yuMCaWto8EuVGJKSJOkYLvICaM
/wJUZDEBzoEBjKs0BbNKOJdWKXSh6lcl1Jz1J5e8gJrF3/nAU000dd/lI38WEXCD
mZu0PtcT8Xi3N70uZqRT2cd8k6nJ/EkK4k8/nVDZITNS5uVgpco/2XUOVQo+D3pK
5uSK/qkN8g2hv62muE1sNDb8LLY=
-----END CERTIFICATE-----
