Certificate:
    Data:
        Version: 3 (0x2)
        Serial Number:
            80:ae:e8:c4:8a:f8:3e:05:cc:cd:2e:ad:9b:38:3c:fd
    Signature Algorithm: sha256WithRSAEncryption
        Issuer: C=US, ST=CA, L=Mountain View, O=Aerospike, Inc., OU=Engineering Test, CN=Root CA
        Validity
            Not Before: Nov  5 20:06:01 2020 GMT
            Not After : Nov  4 20:06:01 2024 GMT
        Subject: C=US, ST=CA, O=Aerospike, Inc., OU=Chainless Test Server, CN=bob-cluster-a
        Subject Public Key Info:
            Public Key Algorithm: rsaEncryption
                Public-Key: (2048 bit)
                Modulus:
                    00:bc:bd:b7:72:4e:0b:36:44:da:af:8e:71:d4:61:
                    d2:4d:48:f8:a5:a9:1e:56:11:64:d6:48:da:d3:dd:
                    f8:c3:d8:e7:aa:3e:68:b2:1f:d1:71:76:f3:4f:f5:
                    41:47:92:06:c3:7d:bc:5c:d1:d3:82:14:b3:5b:ff:
                    47:e9:d9:45:61:02:31:32:d2:9f:ba:38:5d:0a:f3:
                    2a:7c:3c:dc:34:23:49:a2:10:39:56:5c:fd:6f:9e:
                    8c:5d:25:fd:dc:4a:e3:f7:86:71:8e:14:aa:c4:cd:
                    be:11:67:65:41:40:96:c3:15:19:95:83:a1:d8:48:
                    02:20:f9:fb:a2:77:d4:70:ea:65:39:32:5c:db:4d:
                    a6:0b:04:ff:6c:13:5e:bf:ca:87:67:6b:d2:e4:d5:
                    35:49:ea:bd:7f:9f:03:bf:26:0d:06:17:38:4d:2b:
                    4b:ff:4c:e8:0e:72:07:85:56:19:82:67:67:d5:43:
                    2a:ec:22:cd:fd:ac:14:5e:93:c2:d3:86:b0:d3:27:
                    a3:83:3b:1c:11:b7:f1:70:ef:1c:88:4d:e3:a3:a6:
                    f3:7b:d1:1c:ed:25:1e:fa:d1:3b:65:1e:f1:46:2c:
                    7c:e0:c2:2e:e7:ee:53:43:65:88:99:0e:4b:41:ee:
                    d2:42:7c:11:0a:ec:06:c6:76:0f:64:26:d5:b0:74:
                    6c:fd
                Exponent: 65537 (0x10001)
        X509v3 extensions:
            X509v3 Basic Constraints: critical
                CA:TRUE, pathlen:0
            X509v3 Key Usage: critical
                Digital Signature, Key Encipherment, Certificate Sign, CRL Sign
            X509v3 Extended Key Usage: 
                TLS Web Server Authentication, TLS Web Client Authentication
            Authority Information Access: 
                OCSP - URI:http://ocsp.my.host/

            X509v3 CRL Distribution Points: 

                Full Name:
                  URI:http://myhost.com/myca.crl

            X509v3 Certificate Policies: 
                Policy: X509v3 Any Policy
                  CPS: https://myhost.com/CPS

            X509v3 Subject Key Identifier: 
                1F:CF:E6:58:36:F3:67:FC:98:41:72:4F:AA:40:68:35:D6:C1:A8:08
            X509v3 Authority Key Identifier: 
                keyid:CB:DD:69:7B:6D:3D:C7:6F:36:C0:EB:AF:4C:26:4D:3E:E0:97:53:61

    Signature Algorithm: sha256WithRSAEncryption
         b5:88:4e:31:02:1e:61:4c:27:d4:30:67:9a:07:1b:98:29:84:
         b3:e4:99:43:e1:1b:7e:a4:43:4e:3f:2d:64:35:ad:6f:5f:8d:
         27:96:86:81:1d:69:bf:60:2c:8d:7b:25:5a:b0:bf:05:36:0a:
         b6:17:c6:de:70:00:81:09:89:30:92:f4:2a:83:ad:36:79:c7:
         dd:6d:02:33:49:66:58:f7:7c:06:1f:8c:34:23:c4:9f:67:80:
         7b:d6:b3:10:c8:09:f6:79:c4:19:74:0a:84:04:01:bf:1b:ee:
         45:57:d7:d6:5f:61:2f:f8:a3:28:d1:74:70:8e:37:c7:5d:82:
         33:fa:5d:f7:77:5a:b8:9a:ec:f5:a3:90:04:9b:4d:b8:3f:58:
         fd:48:e7:60:7c:f5:b4:16:50:42:79:a4:63:9e:db:45:eb:e8:
         43:49:2d:15:59:2e:9a:3b:24:fc:9f:54:cd:18:0c:7c:5a:bf:
         db:81:d3:29:18:b3:b9:f3:da:63:e7:2a:bf:00:1f:ea:fa:3c:
         94:c3:6e:14:9c:de:48:07:26:01:fa:08:46:1b:b6:75:c1:a8:
         22:74:3f:56:40:76:e9:ba:0a:48:76:51:aa:1e:52:5e:8f:c2:
         92:75:d2:ee:cf:b0:b7:7f:b1:79:ac:d6:53:2d:32:61:10:5d:
         61:e0:76:be
-----BEGIN CERTIFICATE-----
MIIEkTCCA3mgAwIBAgIRAICu6MSK+D4FzM0urZs4PP0wDQYJKoZIhvcNAQELBQAw
eTELMAkGA1UEBhMCVVMxCzAJBgNVBAgMAkNBMRYwFAYDVQQHDA1Nb3VudGFpbiBW
aWV3MRgwFgYDVQQKDA9BZXJvc3Bpa2UsIEluYy4xGTAXBgNVBAsMEEVuZ2luZWVy
aW5nIFRlc3QxEDAOBgNVBAMMB1Jvb3QgQ0EwHhcNMjAxMTA1MjAwNjAxWhcNMjQx
MTA0MjAwNjAxWjBsMQswCQYDVQQGEwJVUzELMAkGA1UECAwCQ0ExGDAWBgNVBAoM
D0Flcm9zcGlrZSwgSW5jLjEeMBwGA1UECwwVQ2hhaW5sZXNzIFRlc3QgU2VydmVy
MRYwFAYDVQQDDA1ib2ItY2x1c3Rlci1hMIIBIjANBgkqhkiG9w0BAQEFAAOCAQ8A
MIIBCgKCAQEAvL23ck4LNkTar45x1GHSTUj4pakeVhFk1kja0934w9jnqj5osh/R
cXbzT/VBR5IGw328XNHTghSzW/9H6dlFYQIxMtKfujhdCvMqfDzcNCNJohA5Vlz9
b56MXSX93Erj94ZxjhSqxM2+EWdlQUCWwxUZlYOh2EgCIPn7onfUcOplOTJc202m
CwT/bBNev8qHZ2vS5NU1Seq9f58DvyYNBhc4TStL/0zoDnIHhVYZgmdn1UMq7CLN
/awUXpPC04aw0yejgzscEbfxcO8ciE3jo6bze9Ec7SUe+tE7ZR7xRix84MIu5+5T
Q2WImQ5LQe7SQnwRCuwGxnYPZCbVsHRs/QIDAQABo4IBHzCCARswEgYDVR0TAQH/
BAgwBgEB/wIBADAOBgNVHQ8BAf8EBAMCAaYwHQYDVR0lBBYwFAYIKwYBBQUHAwEG
CCsGAQUFBwMCMDAGCCsGAQUFBwEBBCQwIjAgBggrBgEFBQcwAYYUaHR0cDovL29j
c3AubXkuaG9zdC8wKwYDVR0fBCQwIjAgoB6gHIYaaHR0cDovL215aG9zdC5jb20v
bXljYS5jcmwwNwYDVR0gBDAwLjAsBgRVHSAAMCQwIgYIKwYBBQUHAgEWFmh0dHBz
Oi8vbXlob3N0LmNvbS9DUFMwHQYDVR0OBBYEFB/P5lg282f8mEFyT6pAaDXWwagI
MB8GA1UdIwQYMBaAFMvdaXttPcdvNsDrr0wmTT7gl1NhMA0GCSqGSIb3DQEBCwUA
A4IBAQC1iE4xAh5hTCfUMGeaBxuYKYSz5JlD4Rt+pENOPy1kNa1vX40nloaBHWm/
YCyNeyVasL8FNgq2F8becACBCYkwkvQqg602ecfdbQIzSWZY93wGH4w0I8SfZ4B7
1rMQyAn2ecQZdAqEBAG/G+5FV9fWX2Ev+KMo0XRwjjfHXYIz+l33d1q4muz1o5AE
m024P1j9SOdgfPW0FlBCeaRjnttF6+hDSS0VWS6aOyT8n1TNGAx8Wr/bgdMpGLO5
89pj5yq/AB/q+jyUw24UnN5IByYB+ghGG7Z1wagidD9WQHbpugpIdlGqHlJej8KS
ddLuz7C3f7F5rNZTLTJhEF1h4Ha+
-----END CERTIFICATE-----
