Certificate:
    Data:
        Version: 3 (0x2)
        Serial Number:
            26:6f:b5:f6:79:80:39:08:55:7b:ac:d8:c3:59:db:e7
    Signature Algorithm: sha256WithRSAEncryption
        Issuer: C=US, ST=CA, O=Aerospike, Inc., OU=Engineering Test, CN=Chain Signing Cert
        Validity
            Not Before: Nov  5 20:06:01 2020 GMT
            Not After : Nov  4 20:06:01 2024 GMT
        Subject: C=US, ST=CA, O=Aerospike, Inc., OU=Cluster Name Test, CN=bob-cluster-b
        Subject Public Key Info:
            Public Key Algorithm: rsaEncryption
                Public-Key: (2048 bit)
                Modulus:
                    00:92:85:60:1d:95:35:84:76:e0:1f:2d:3d:f1:85:
                    02:8f:88:1a:cd:26:bf:6c:fe:85:e0:d0:08:bf:da:
                    40:1c:7f:7d:1c:c4:ed:eb:fc:0a:be:86:98:62:14:
                    46:cb:ca:ae:34:3c:5f:09:19:31:06:89:6f:bd:cc:
                    b1:6b:fb:2d:01:7f:b2:83:bf:06:fb:d9:d4:a9:f5:
                    44:1b:28:86:8e:07:6f:b0:bf:57:c5:b2:92:ec:25:
                    64:0b:40:99:ff:d9:09:2e:fe:05:da:92:36:07:ac:
                    b0:b7:55:81:7d:0b:87:e4:c4:cb:eb:18:2a:71:28:
                    ba:8b:88:b7:c1:ea:09:13:cc:6d:42:f7:35:ec:8e:
                    18:79:0d:5a:ed:d1:a9:ce:75:b1:c0:46:9b:21:a5:
                    21:09:96:5d:03:a3:1e:48:f2:7f:a3:78:eb:ff:aa:
                    a2:42:79:91:02:df:ac:e3:a0:a8:82:f1:65:b7:37:
                    a3:b4:da:73:6b:0a:5e:af:40:ca:93:47:67:4b:b7:
                    ee:2b:8e:44:c7:25:0e:7a:1d:cb:2e:6a:fa:28:00:
                    f4:f7:52:59:45:f5:cb:b1:00:d0:0f:18:ad:8d:2a:
                    79:e0:7f:ac:2b:ef:ef:4e:e2:59:2e:be:f9:30:a6:
                    bc:4c:43:a2:50:d1:60:08:07:05:06:71:6a:74:6d:
                    43:fd
                Exponent: 65537 (0x10001)
        X509v3 extensions:
            X509v3 Authority Key Identifier: 
                keyid:BC:72:1F:3D:E6:B5:5C:BD:B9:2E:98:5E:FD:53:F7:F1:EA:17:70:96

            X509v3 Subject Key Identifier: 
                A7:7A:2A:68:74:AF:0F:9B:D0:43:59:F8:BC:10:6C:FD:B0:17:9D:84
            X509v3 Key Usage: critical
                Digital Signature, Key Encipherment
            X509v3 Extended Key Usage: 
                TLS Web Server Authentication, TLS Web Client Authentication
            X509v3 CRL Distribution Points: 

                Full Name:
                  URI:http://myhost.com/myca1.crl

                Full Name:
                  URI:http://myhost.com/myca2.crl

            X509v3 Certificate Policies: 
                Policy: 2.16.840.1.114412.1.1
                  CPS: https://myhost.com/CPS
                Policy: 2.23.140.1.2.2

            Authority Information Access: 
                OCSP - URI:http://ocsp.my.host/
                CA Issuers - URI:http://my.ca/ca.html

            X509v3 Basic Constraints: critical
                CA:FALSE
    Signature Algorithm: sha256WithRSAEncryption
         6a:e9:ae:e2:45:15:c4:81:89:48:c6:31:31:88:56:aa:a6:f0:
         b1:0f:16:72:01:64:18:84:4d:ab:8b:b2:b1:e2:48:04:d4:3e:
         44:2d:c3:0a:03:f1:47:ec:e6:dc:e1:d7:68:10:13:8e:4f:e4:
         3e:81:24:1d:b4:e5:6e:e1:37:8f:98:ad:7e:07:a2:87:4f:9c:
         89:b3:d9:2c:2c:d1:8b:a3:2c:b9:19:f4:23:05:31:f8:0d:1f:
         59:0c:0f:4e:7f:37:4a:22:38:64:3b:6a:75:21:d8:74:ee:79:
         7f:c4:a5:34:5a:92:63:89:54:59:28:0e:23:23:f6:47:19:8c:
         e4:46:f0:1b:44:07:72:3c:5d:12:2c:22:a7:20:83:cb:0b:9b:
         1a:0c:5c:08:4c:ab:c2:fb:56:e3:66:26:71:9c:14:ae:d1:b3:
         dc:ab:01:4c:48:fe:50:52:75:f0:12:f3:a3:f4:e9:a4:e3:d4:
         93:b8:c7:7c:ee:7e:d1:48:49:33:60:8f:e0:61:5c:0c:06:da:
         22:7b:a9:af:01:5c:9a:c5:c3:ed:42:1a:23:f8:07:87:38:c6:
         98:78:7e:14:c9:e4:f4:87:1b:da:4e:31:40:aa:88:a9:e7:da:
         d1:c0:9e:c3:56:a9:ab:2f:19:9a:97:c9:ff:b4:28:58:a1:22:
         01:7d:ac:ba
-----BEGIN CERTIFICATE-----
MIIEzjCCA7agAwIBAgIQJm+19nmAOQhVe6zYw1nb5zANBgkqhkiG9w0BAQsFADBs
MQswCQYDVQQGEwJVUzELMAkGA1UECAwCQ0ExGDAWBgNVBAoMD0Flcm9zcGlrZSwg
SW5jLjEZMBcGA1UECwwQRW5naW5lZXJpbmcgVGVzdDEbMBkGA1UEAwwSQ2hhaW4g
U2lnbmluZyBDZXJ0MB4XDTIwMTEwNTIwMDYwMVoXDTI0MTEwNDIwMDYwMVowaDEL
MAkGA1UEBhMCVVMxCzAJBgNVBAgMAkNBMRgwFgYDVQQKDA9BZXJvc3Bpa2UsIElu
Yy4xGjAYBgNVBAsMEUNsdXN0ZXIgTmFtZSBUZXN0MRYwFAYDVQQDDA1ib2ItY2x1
c3Rlci1iMIIBIjANBgkqhkiG9w0BAQEFAAOCAQ8AMIIBCgKCAQEAkoVgHZU1hHbg
Hy098YUCj4gazSa/bP6F4NAIv9pAHH99HMTt6/wKvoaYYhRGy8quNDxfCRkxBolv
vcyxa/stAX+yg78G+9nUqfVEGyiGjgdvsL9XxbKS7CVkC0CZ/9kJLv4F2pI2B6yw
t1WBfQuH5MTL6xgqcSi6i4i3weoJE8xtQvc17I4YeQ1a7dGpznWxwEabIaUhCZZd
A6MeSPJ/o3jr/6qiQnmRAt+s46CogvFltzejtNpzawper0DKk0dnS7fuK45ExyUO
eh3LLmr6KAD091JZRfXLsQDQDxitjSp54H+sK+/vTuJZLr75MKa8TEOiUNFgCAcF
BnFqdG1D/QIDAQABo4IBbjCCAWowHwYDVR0jBBgwFoAUvHIfPea1XL25Lphe/VP3
8eoXcJYwHQYDVR0OBBYEFKd6Kmh0rw+b0ENZ+LwQbP2wF52EMA4GA1UdDwEB/wQE
AwIFoDAdBgNVHSUEFjAUBggrBgEFBQcDAQYIKwYBBQUHAwIwTwYDVR0fBEgwRjAh
oB+gHYYbaHR0cDovL215aG9zdC5jb20vbXljYTEuY3JsMCGgH6AdhhtodHRwOi8v
bXlob3N0LmNvbS9teWNhMi5jcmwwRgYDVR0gBD8wPTAxBglghkgBhv1sAQEwJDAi
BggrBgEFBQcCARYWaHR0cHM6Ly9teWhvc3QuY29tL0NQUzAIBgZngQwBAgIwUgYI
KwYBBQUHAQEERjBEMCAGCCsGAQUFBzABhhRodHRwOi8vb2NzcC5teS5ob3N0LzAg
BggrBgEFBQcwAoYUaHR0cDovL215LmNhL2NhLmh0bWwwDAYDVR0TAQH/BAIwADAN
BgkqhkiG9w0BAQsFAAOCAQEAaumu4kUVxIGJSMYxMYhWqqbwsQ8WcgFkGIRNq4uy
seJIBNQ+RC3DCgPxR+zm3OHXaBATjk/kPoEkHbTlbuE3j5itfgeih0+cibPZLCzR
i6MsuRn0IwUx+A0fWQwPTn83SiI4ZDtqdSHYdO55f8SlNFqSY4lUWSgOIyP2RxmM
5EbwG0QHcjxdEiwipyCDywubGgxcCEyrwvtW42YmcZwUrtGz3KsBTEj+UFJ18BLz
o/TppOPUk7jHfO5+0UhJM2CP4GFcDAbaInuprwFcmsXD7UIaI/gHhzjGmHh+FMnk
9Icb2k4xQKqIqefa0cCew1apqy8ZmpfJ/7QoWKEiAX2sug==
-----END CERTIFICATE-----
