Certificate:
    Data:
        Version: 3 (0x2)
        Serial Number:
            de:1a:c3:bb:b4:40:da:7a:a6:61:59:b1:87:76:15:31
    Signature Algorithm: sha256WithRSAEncryption
        Issuer: C=US, ST=CA, L=Mountain View, O=Aerospike, Inc., OU=Engineering Test, CN=Root CA
        Validity
            Not Before: Nov  5 20:06:01 2020 GMT
            Not After : Nov  4 20:06:01 2024 GMT
        Subject: C=US, ST=CA, O=Aerospike, Inc., OU=Chainless Test Server, CN=bob-cluster-c
        Subject Public Key Info:
            Public Key Algorithm: rsaEncryption
                Public-Key: (2048 bit)
                Modulus:
                    00:c9:14:7a:3c:33:42:6b:c9:c8:d7:72:27:13:f6:
                    95:22:dd:48:7c:ae:aa:e0:dc:c9:98:0a:42:1f:bf:
                    96:c9:b7:02:59:8a:31:19:39:f5:bc:94:46:94:82:
                    89:dd:94:0f:b3:b5:42:8c:49:17:eb:9e:43:91:47:
                    f9:69:f6:a6:6a:a7:51:d1:60:93:fc:d0:78:9d:bc:
                    bb:91:24:c1:58:c5:56:67:cc:3b:40:20:80:92:04:
                    52:80:81:8e:52:dc:d1:42:10:c2:bb:3c:33:c9:07:
                    10:07:aa:e1:15:fd:1a:93:ed:3d:08:26:6e:2d:5f:
                    95:19:fc:d7:3c:5c:de:50:e6:50:9b:b1:b1:2e:f8:
                    1e:11:05:e5:50:23:64:74:10:e0:0e:93:de:7f:d7:
                    f2:77:5b:7c:23:63:b1:8d:31:81:cf:e0:31:37:fe:
                    e3:b9:cb:0c:73:5e:7f:01:62:f9:7b:81:08:7a:ec:
                    20:0c:a5:b9:97:0c:a5:ff:70:5f:e8:3c:30:07:b2:
                    9c:d0:8c:72:ec:2a:72:38:b8:fc:d0:2b:d2:69:a4:
                    58:61:f7:b5:1e:7e:74:1e:0f:40:c3:d2:c5:ab:e9:
                    f1:eb:8b:33:9c:13:7c:99:04:0e:1d:cd:ba:b6:28:
                    7d:d9:0c:9e:8b:11:13:77:6f:8a:06:a1:cb:1a:53:
                    b3:fb
                Exponent: 65537 (0x10001)
        X509v3 extensions:
            X509v3 Basic Constraints: critical
                CA:TRUE, pathlen:0
            X509v3 Key Usage: critical
                Digital Signature, Key Encipherment, Certificate Sign, CRL Sign
            X509v3 Extended Key Usage: 
                TLS Web Server Authentication, TLS Web Client Authentication
            Authority Information Access: 
                OCSP - URI:http://ocsp.my.host/

            X509v3 CRL Distribution Points: 

                Full Name:
                  URI:http://myhost.com/myca.crl

            X509v3 Certificate Policies: 
                Policy: X509v3 Any Policy
                  CPS: https://myhost.com/CPS

            X509v3 Subject Key Identifier: 
                9F:64:58:33:DD:8E:60:EC:F0:AA:1D:C4:C3:D0:83:49:E7:43:E7:7B
            X509v3 Authority Key Identifier: 
                keyid:CB:DD:69:7B:6D:3D:C7:6F:36:C0:EB:AF:4C:26:4D:3E:E0:97:53:61

    Signature Algorithm: sha256WithRSAEncryption
         b2:0c:ba:7b:b5:fe:ff:6f:56:b1:9b:09:b3:56:bc:d4:bf:1a:
         36:40:b6:08:cd:96:30:52:b4:93:19:01:ab:8f:4e:f7:49:52:
         16:f9:8b:86:9a:c0:fd:3a:96:b7:61:94:9e:a8:88:64:48:ed:
         41:31:37:a7:3e:72:45:09:bf:fb:79:22:13:c8:ff:f1:5f:c3:
         5f:be:89:5b:99:2e:28:18:14:45:c3:a5:fd:08:b6:fd:9a:66:
         c9:f7:9d:53:0d:98:fa:02:30:2a:04:eb:26:0f:80:9d:86:a8:
         2c:aa:79:81:1f:ec:e3:d4:d3:77:8f:a7:5a:6b:73:10:ec:4b:
         95:6d:43:db:41:54:ce:7e:23:6c:a1:dc:d4:60:0b:12:74:38:
         1e:cd:fb:05:9d:2f:35:74:9a:78:c0:fb:0c:19:60:e3:40:ae:
         ed:65:25:80:4e:21:74:02:eb:6d:09:e5:ba:6c:38:0f:3b:fe:
         bf:60:97:01:17:99:43:cf:31:2d:0f:59:2f:9f:31:a3:09:1e:
         5f:9d:da:4b:28:a8:6e:19:78:a6:7b:27:20:04:94:93:34:50:
         9c:33:d1:9f:f8:b2:9d:86:4b:9b:eb:ff:fd:7a:0a:ea:eb:f5:
         ef:6a:36:e5:5e:7f:28:68:bc:e4:6c:7b:89:b5:7d:96:87:ac:
         74:ab:e6:e8
-----BEGIN CERTIFICATE-----
MIIEkTCCA3mgAwIBAgIRAN4aw7u0QNp6pmFZsYd2FTEwDQYJKoZIhvcNAQELBQAw
eTELMAkGA1UEBhMCVVMxCzAJBgNVBAgMAkNBMRYwFAYDVQQHDA1Nb3VudGFpbiBW
aWV3MRgwFgYDVQQKDA9BZXJvc3Bpa2UsIEluYy4xGTAXBgNVBAsMEEVuZ2luZWVy
aW5nIFRlc3QxEDAOBgNVBAMMB1Jvb3QgQ0EwHhcNMjAxMTA1MjAwNjAxWhcNMjQx
MTA0MjAwNjAxWjBsMQswCQYDVQQGEwJVUzELMAkGA1UECAwCQ0ExGDAWBgNVBAoM
D0Flcm9zcGlrZSwgSW5jLjEeMBwGA1UECwwVQ2hhaW5sZXNzIFRlc3QgU2VydmVy
MRYwFAYDVQQDDA1ib2ItY2x1c3Rlci1jMIIBIjANBgkqhkiG9w0BAQEFAAOCAQ8A
MIIBCgKCAQEAyRR6PDNCa8nI13InE/aVIt1IfK6q4NzJmApCH7+WybcCWYoxGTn1
vJRGlIKJ3ZQPs7VCjEkX655DkUf5afamaqdR0WCT/NB4nby7kSTBWMVWZ8w7QCCA
kgRSgIGOUtzRQhDCuzwzyQcQB6rhFf0ak+09CCZuLV+VGfzXPFzeUOZQm7GxLvge
EQXlUCNkdBDgDpPef9fyd1t8I2OxjTGBz+AxN/7jucsMc15/AWL5e4EIeuwgDKW5
lwyl/3Bf6DwwB7Kc0Ixy7CpyOLj80CvSaaRYYfe1Hn50Hg9Aw9LFq+nx64sznBN8
mQQOHc26tih92QyeixETd2+KBqHLGlOz+wIDAQABo4IBHzCCARswEgYDVR0TAQH/
BAgwBgEB/wIBADAOBgNVHQ8BAf8EBAMCAaYwHQYDVR0lBBYwFAYIKwYBBQUHAwEG
CCsGAQUFBwMCMDAGCCsGAQUFBwEBBCQwIjAgBggrBgEFBQcwAYYUaHR0cDovL29j
c3AubXkuaG9zdC8wKwYDVR0fBCQwIjAgoB6gHIYaaHR0cDovL215aG9zdC5jb20v
bXljYS5jcmwwNwYDVR0gBDAwLjAsBgRVHSAAMCQwIgYIKwYBBQUHAgEWFmh0dHBz
Oi8vbXlob3N0LmNvbS9DUFMwHQYDVR0OBBYEFJ9kWDPdjmDs8KodxMPQg0nnQ+d7
MB8GA1UdIwQYMBaAFMvdaXttPcdvNsDrr0wmTT7gl1NhMA0GCSqGSIb3DQEBCwUA
A4IBAQCyDLp7tf7/b1axmwmzVrzUvxo2QLYIzZYwUrSTGQGrj073SVIW+YuGmsD9
Opa3YZSeqIhkSO1BMTenPnJFCb/7eSITyP/xX8NfvolbmS4oGBRFw6X9CLb9mmbJ
951TDZj6AjAqBOsmD4CdhqgsqnmBH+zj1NN3j6daa3MQ7EuVbUPbQVTOfiNsodzU
YAsSdDgezfsFnS81dJp4wPsMGWDjQK7tZSWATiF0AuttCeW6bDgPO/6/YJcBF5lD
zzEtD1kvnzGjCR5fndpLKKhuGXimeycgBJSTNFCcM9Gf+LKdhkub6//9egrq6/Xv
ajblXn8oaLzkbHuJtX2Wh6x0q+bo
-----END CERTIFICATE-----
